ARM GAS  C:\Users\Acer\AppData\Local\Temp\cc74HznB.s 			page 1


   1              		.cpu cortex-m4
   2              		.arch armv7e-m
   3              		.fpu fpv4-sp-d16
   4              		.eabi_attribute 27, 1
   5              		.eabi_attribute 28, 1
   6              		.eabi_attribute 20, 1
   7              		.eabi_attribute 21, 1
   8              		.eabi_attribute 23, 3
   9              		.eabi_attribute 24, 1
  10              		.eabi_attribute 25, 1
  11              		.eabi_attribute 26, 1
  12              		.eabi_attribute 30, 1
  13              		.eabi_attribute 34, 1
  14              		.eabi_attribute 18, 4
  15              		.file	"usbh_ctlreq.c"
  16              		.text
  17              	.Ltext0:
  18              		.cfi_sections	.debug_frame
  19              		.section	.text.USBH_ParseDevDesc,"ax",%progbits
  20              		.align	1
  21              		.syntax unified
  22              		.thumb
  23              		.thumb_func
  25              	USBH_ParseDevDesc:
  26              	.LVL0:
  27              	.LFB142:
  28              		.file 1 "Middlewares/ST/STM32_USB_Host_Library/Core/Src/usbh_ctlreq.c"
   1:Middlewares/ST/STM32_USB_Host_Library/Core/Src/usbh_ctlreq.c **** /**
   2:Middlewares/ST/STM32_USB_Host_Library/Core/Src/usbh_ctlreq.c ****   ******************************************************************************
   3:Middlewares/ST/STM32_USB_Host_Library/Core/Src/usbh_ctlreq.c ****   * @file    usbh_ctlreq.c
   4:Middlewares/ST/STM32_USB_Host_Library/Core/Src/usbh_ctlreq.c ****   * @author  MCD Application Team
   5:Middlewares/ST/STM32_USB_Host_Library/Core/Src/usbh_ctlreq.c ****   * @brief   This file implements the control requests for device enumeration
   6:Middlewares/ST/STM32_USB_Host_Library/Core/Src/usbh_ctlreq.c ****   ******************************************************************************
   7:Middlewares/ST/STM32_USB_Host_Library/Core/Src/usbh_ctlreq.c ****   * @attention
   8:Middlewares/ST/STM32_USB_Host_Library/Core/Src/usbh_ctlreq.c ****   *
   9:Middlewares/ST/STM32_USB_Host_Library/Core/Src/usbh_ctlreq.c ****   * <h2><center>&copy; Copyright (c) 2015 STMicroelectronics.
  10:Middlewares/ST/STM32_USB_Host_Library/Core/Src/usbh_ctlreq.c ****   * All rights reserved.</center></h2>
  11:Middlewares/ST/STM32_USB_Host_Library/Core/Src/usbh_ctlreq.c ****   *
  12:Middlewares/ST/STM32_USB_Host_Library/Core/Src/usbh_ctlreq.c ****   * This software component is licensed by ST under Ultimate Liberty license
  13:Middlewares/ST/STM32_USB_Host_Library/Core/Src/usbh_ctlreq.c ****   * SLA0044, the "License"; You may not use this file except in compliance with
  14:Middlewares/ST/STM32_USB_Host_Library/Core/Src/usbh_ctlreq.c ****   * the License. You may obtain a copy of the License at:
  15:Middlewares/ST/STM32_USB_Host_Library/Core/Src/usbh_ctlreq.c ****   *                      www.st.com/SLA0044
  16:Middlewares/ST/STM32_USB_Host_Library/Core/Src/usbh_ctlreq.c ****   *
  17:Middlewares/ST/STM32_USB_Host_Library/Core/Src/usbh_ctlreq.c ****   ******************************************************************************
  18:Middlewares/ST/STM32_USB_Host_Library/Core/Src/usbh_ctlreq.c ****   */
  19:Middlewares/ST/STM32_USB_Host_Library/Core/Src/usbh_ctlreq.c **** 
  20:Middlewares/ST/STM32_USB_Host_Library/Core/Src/usbh_ctlreq.c **** /* Includes ------------------------------------------------------------------*/
  21:Middlewares/ST/STM32_USB_Host_Library/Core/Src/usbh_ctlreq.c **** #include "usbh_ctlreq.h"
  22:Middlewares/ST/STM32_USB_Host_Library/Core/Src/usbh_ctlreq.c **** 
  23:Middlewares/ST/STM32_USB_Host_Library/Core/Src/usbh_ctlreq.c **** /** @addtogroup USBH_LIB
  24:Middlewares/ST/STM32_USB_Host_Library/Core/Src/usbh_ctlreq.c **** * @{
  25:Middlewares/ST/STM32_USB_Host_Library/Core/Src/usbh_ctlreq.c **** */
  26:Middlewares/ST/STM32_USB_Host_Library/Core/Src/usbh_ctlreq.c **** 
  27:Middlewares/ST/STM32_USB_Host_Library/Core/Src/usbh_ctlreq.c **** /** @addtogroup USBH_LIB_CORE
  28:Middlewares/ST/STM32_USB_Host_Library/Core/Src/usbh_ctlreq.c **** * @{
  29:Middlewares/ST/STM32_USB_Host_Library/Core/Src/usbh_ctlreq.c **** */
  30:Middlewares/ST/STM32_USB_Host_Library/Core/Src/usbh_ctlreq.c **** 
ARM GAS  C:\Users\Acer\AppData\Local\Temp\cc74HznB.s 			page 2


  31:Middlewares/ST/STM32_USB_Host_Library/Core/Src/usbh_ctlreq.c **** /** @defgroup USBH_CTLREQ
  32:Middlewares/ST/STM32_USB_Host_Library/Core/Src/usbh_ctlreq.c **** * @brief This file implements the standard requests for device enumeration
  33:Middlewares/ST/STM32_USB_Host_Library/Core/Src/usbh_ctlreq.c **** * @{
  34:Middlewares/ST/STM32_USB_Host_Library/Core/Src/usbh_ctlreq.c **** */
  35:Middlewares/ST/STM32_USB_Host_Library/Core/Src/usbh_ctlreq.c **** 
  36:Middlewares/ST/STM32_USB_Host_Library/Core/Src/usbh_ctlreq.c **** 
  37:Middlewares/ST/STM32_USB_Host_Library/Core/Src/usbh_ctlreq.c **** /** @defgroup USBH_CTLREQ_Private_Defines
  38:Middlewares/ST/STM32_USB_Host_Library/Core/Src/usbh_ctlreq.c **** * @{
  39:Middlewares/ST/STM32_USB_Host_Library/Core/Src/usbh_ctlreq.c **** */
  40:Middlewares/ST/STM32_USB_Host_Library/Core/Src/usbh_ctlreq.c **** /**
  41:Middlewares/ST/STM32_USB_Host_Library/Core/Src/usbh_ctlreq.c **** * @}
  42:Middlewares/ST/STM32_USB_Host_Library/Core/Src/usbh_ctlreq.c **** */
  43:Middlewares/ST/STM32_USB_Host_Library/Core/Src/usbh_ctlreq.c **** 
  44:Middlewares/ST/STM32_USB_Host_Library/Core/Src/usbh_ctlreq.c **** 
  45:Middlewares/ST/STM32_USB_Host_Library/Core/Src/usbh_ctlreq.c **** /** @defgroup USBH_CTLREQ_Private_TypesDefinitions
  46:Middlewares/ST/STM32_USB_Host_Library/Core/Src/usbh_ctlreq.c **** * @{
  47:Middlewares/ST/STM32_USB_Host_Library/Core/Src/usbh_ctlreq.c **** */
  48:Middlewares/ST/STM32_USB_Host_Library/Core/Src/usbh_ctlreq.c **** /**
  49:Middlewares/ST/STM32_USB_Host_Library/Core/Src/usbh_ctlreq.c **** * @}
  50:Middlewares/ST/STM32_USB_Host_Library/Core/Src/usbh_ctlreq.c **** */
  51:Middlewares/ST/STM32_USB_Host_Library/Core/Src/usbh_ctlreq.c **** 
  52:Middlewares/ST/STM32_USB_Host_Library/Core/Src/usbh_ctlreq.c **** 
  53:Middlewares/ST/STM32_USB_Host_Library/Core/Src/usbh_ctlreq.c **** 
  54:Middlewares/ST/STM32_USB_Host_Library/Core/Src/usbh_ctlreq.c **** /** @defgroup USBH_CTLREQ_Private_Macros
  55:Middlewares/ST/STM32_USB_Host_Library/Core/Src/usbh_ctlreq.c **** * @{
  56:Middlewares/ST/STM32_USB_Host_Library/Core/Src/usbh_ctlreq.c **** */
  57:Middlewares/ST/STM32_USB_Host_Library/Core/Src/usbh_ctlreq.c **** /**
  58:Middlewares/ST/STM32_USB_Host_Library/Core/Src/usbh_ctlreq.c **** * @}
  59:Middlewares/ST/STM32_USB_Host_Library/Core/Src/usbh_ctlreq.c **** */
  60:Middlewares/ST/STM32_USB_Host_Library/Core/Src/usbh_ctlreq.c **** 
  61:Middlewares/ST/STM32_USB_Host_Library/Core/Src/usbh_ctlreq.c **** 
  62:Middlewares/ST/STM32_USB_Host_Library/Core/Src/usbh_ctlreq.c **** /** @defgroup USBH_CTLREQ_Private_Variables
  63:Middlewares/ST/STM32_USB_Host_Library/Core/Src/usbh_ctlreq.c **** * @{
  64:Middlewares/ST/STM32_USB_Host_Library/Core/Src/usbh_ctlreq.c **** */
  65:Middlewares/ST/STM32_USB_Host_Library/Core/Src/usbh_ctlreq.c **** /**
  66:Middlewares/ST/STM32_USB_Host_Library/Core/Src/usbh_ctlreq.c **** * @}
  67:Middlewares/ST/STM32_USB_Host_Library/Core/Src/usbh_ctlreq.c **** */
  68:Middlewares/ST/STM32_USB_Host_Library/Core/Src/usbh_ctlreq.c **** 
  69:Middlewares/ST/STM32_USB_Host_Library/Core/Src/usbh_ctlreq.c **** /** @defgroup USBH_CTLREQ_Private_FunctionPrototypes
  70:Middlewares/ST/STM32_USB_Host_Library/Core/Src/usbh_ctlreq.c **** * @{
  71:Middlewares/ST/STM32_USB_Host_Library/Core/Src/usbh_ctlreq.c **** */
  72:Middlewares/ST/STM32_USB_Host_Library/Core/Src/usbh_ctlreq.c **** static USBH_StatusTypeDef USBH_HandleControl(USBH_HandleTypeDef *phost);
  73:Middlewares/ST/STM32_USB_Host_Library/Core/Src/usbh_ctlreq.c **** 
  74:Middlewares/ST/STM32_USB_Host_Library/Core/Src/usbh_ctlreq.c **** static void USBH_ParseDevDesc(USBH_DevDescTypeDef *dev_desc,
  75:Middlewares/ST/STM32_USB_Host_Library/Core/Src/usbh_ctlreq.c ****                               uint8_t *buf, uint16_t length);
  76:Middlewares/ST/STM32_USB_Host_Library/Core/Src/usbh_ctlreq.c **** 
  77:Middlewares/ST/STM32_USB_Host_Library/Core/Src/usbh_ctlreq.c **** static void USBH_ParseCfgDesc(USBH_CfgDescTypeDef *cfg_desc,
  78:Middlewares/ST/STM32_USB_Host_Library/Core/Src/usbh_ctlreq.c ****                               uint8_t *buf, uint16_t length);
  79:Middlewares/ST/STM32_USB_Host_Library/Core/Src/usbh_ctlreq.c **** 
  80:Middlewares/ST/STM32_USB_Host_Library/Core/Src/usbh_ctlreq.c **** static void USBH_ParseEPDesc(USBH_EpDescTypeDef  *ep_descriptor, uint8_t *buf);
  81:Middlewares/ST/STM32_USB_Host_Library/Core/Src/usbh_ctlreq.c **** static void USBH_ParseStringDesc(uint8_t *psrc, uint8_t *pdest, uint16_t length);
  82:Middlewares/ST/STM32_USB_Host_Library/Core/Src/usbh_ctlreq.c **** static void USBH_ParseInterfaceDesc(USBH_InterfaceDescTypeDef  *if_descriptor, uint8_t *buf);
  83:Middlewares/ST/STM32_USB_Host_Library/Core/Src/usbh_ctlreq.c **** 
  84:Middlewares/ST/STM32_USB_Host_Library/Core/Src/usbh_ctlreq.c **** 
  85:Middlewares/ST/STM32_USB_Host_Library/Core/Src/usbh_ctlreq.c **** /**
  86:Middlewares/ST/STM32_USB_Host_Library/Core/Src/usbh_ctlreq.c **** * @}
  87:Middlewares/ST/STM32_USB_Host_Library/Core/Src/usbh_ctlreq.c **** */
ARM GAS  C:\Users\Acer\AppData\Local\Temp\cc74HznB.s 			page 3


  88:Middlewares/ST/STM32_USB_Host_Library/Core/Src/usbh_ctlreq.c **** 
  89:Middlewares/ST/STM32_USB_Host_Library/Core/Src/usbh_ctlreq.c **** 
  90:Middlewares/ST/STM32_USB_Host_Library/Core/Src/usbh_ctlreq.c **** /** @defgroup USBH_CTLREQ_Private_Functions
  91:Middlewares/ST/STM32_USB_Host_Library/Core/Src/usbh_ctlreq.c **** * @{
  92:Middlewares/ST/STM32_USB_Host_Library/Core/Src/usbh_ctlreq.c **** */
  93:Middlewares/ST/STM32_USB_Host_Library/Core/Src/usbh_ctlreq.c **** 
  94:Middlewares/ST/STM32_USB_Host_Library/Core/Src/usbh_ctlreq.c **** 
  95:Middlewares/ST/STM32_USB_Host_Library/Core/Src/usbh_ctlreq.c **** /**
  96:Middlewares/ST/STM32_USB_Host_Library/Core/Src/usbh_ctlreq.c ****   * @brief  USBH_Get_DevDesc
  97:Middlewares/ST/STM32_USB_Host_Library/Core/Src/usbh_ctlreq.c ****   *         Issue Get Device Descriptor command to the device. Once the response
  98:Middlewares/ST/STM32_USB_Host_Library/Core/Src/usbh_ctlreq.c ****   *         received, it parses the device descriptor and updates the status.
  99:Middlewares/ST/STM32_USB_Host_Library/Core/Src/usbh_ctlreq.c ****   * @param  phost: Host Handle
 100:Middlewares/ST/STM32_USB_Host_Library/Core/Src/usbh_ctlreq.c ****   * @param  length: Length of the descriptor
 101:Middlewares/ST/STM32_USB_Host_Library/Core/Src/usbh_ctlreq.c ****   * @retval USBH Status
 102:Middlewares/ST/STM32_USB_Host_Library/Core/Src/usbh_ctlreq.c ****   */
 103:Middlewares/ST/STM32_USB_Host_Library/Core/Src/usbh_ctlreq.c **** USBH_StatusTypeDef USBH_Get_DevDesc(USBH_HandleTypeDef *phost, uint8_t length)
 104:Middlewares/ST/STM32_USB_Host_Library/Core/Src/usbh_ctlreq.c **** {
 105:Middlewares/ST/STM32_USB_Host_Library/Core/Src/usbh_ctlreq.c ****   USBH_StatusTypeDef status;
 106:Middlewares/ST/STM32_USB_Host_Library/Core/Src/usbh_ctlreq.c **** 
 107:Middlewares/ST/STM32_USB_Host_Library/Core/Src/usbh_ctlreq.c ****   if ((status = USBH_GetDescriptor(phost,
 108:Middlewares/ST/STM32_USB_Host_Library/Core/Src/usbh_ctlreq.c ****                                    USB_REQ_RECIPIENT_DEVICE | USB_REQ_TYPE_STANDARD,
 109:Middlewares/ST/STM32_USB_Host_Library/Core/Src/usbh_ctlreq.c ****                                    USB_DESC_DEVICE, phost->device.Data,
 110:Middlewares/ST/STM32_USB_Host_Library/Core/Src/usbh_ctlreq.c ****                                    (uint16_t)length)) == USBH_OK)
 111:Middlewares/ST/STM32_USB_Host_Library/Core/Src/usbh_ctlreq.c ****   {
 112:Middlewares/ST/STM32_USB_Host_Library/Core/Src/usbh_ctlreq.c ****     /* Commands successfully sent and Response Received */
 113:Middlewares/ST/STM32_USB_Host_Library/Core/Src/usbh_ctlreq.c ****     USBH_ParseDevDesc(&phost->device.DevDesc, phost->device.Data,
 114:Middlewares/ST/STM32_USB_Host_Library/Core/Src/usbh_ctlreq.c ****                       (uint16_t)length);
 115:Middlewares/ST/STM32_USB_Host_Library/Core/Src/usbh_ctlreq.c ****   }
 116:Middlewares/ST/STM32_USB_Host_Library/Core/Src/usbh_ctlreq.c **** 
 117:Middlewares/ST/STM32_USB_Host_Library/Core/Src/usbh_ctlreq.c ****   return status;
 118:Middlewares/ST/STM32_USB_Host_Library/Core/Src/usbh_ctlreq.c **** }
 119:Middlewares/ST/STM32_USB_Host_Library/Core/Src/usbh_ctlreq.c **** 
 120:Middlewares/ST/STM32_USB_Host_Library/Core/Src/usbh_ctlreq.c **** 
 121:Middlewares/ST/STM32_USB_Host_Library/Core/Src/usbh_ctlreq.c **** /**
 122:Middlewares/ST/STM32_USB_Host_Library/Core/Src/usbh_ctlreq.c ****   * @brief  USBH_Get_CfgDesc
 123:Middlewares/ST/STM32_USB_Host_Library/Core/Src/usbh_ctlreq.c ****   *         Issues Configuration Descriptor to the device. Once the response
 124:Middlewares/ST/STM32_USB_Host_Library/Core/Src/usbh_ctlreq.c ****   *         received, it parses the configuration descriptor and updates the
 125:Middlewares/ST/STM32_USB_Host_Library/Core/Src/usbh_ctlreq.c ****   *         status.
 126:Middlewares/ST/STM32_USB_Host_Library/Core/Src/usbh_ctlreq.c ****   * @param  phost: Host Handle
 127:Middlewares/ST/STM32_USB_Host_Library/Core/Src/usbh_ctlreq.c ****   * @param  length: Length of the descriptor
 128:Middlewares/ST/STM32_USB_Host_Library/Core/Src/usbh_ctlreq.c ****   * @retval USBH Status
 129:Middlewares/ST/STM32_USB_Host_Library/Core/Src/usbh_ctlreq.c ****   */
 130:Middlewares/ST/STM32_USB_Host_Library/Core/Src/usbh_ctlreq.c **** USBH_StatusTypeDef USBH_Get_CfgDesc(USBH_HandleTypeDef *phost,
 131:Middlewares/ST/STM32_USB_Host_Library/Core/Src/usbh_ctlreq.c ****                                     uint16_t length)
 132:Middlewares/ST/STM32_USB_Host_Library/Core/Src/usbh_ctlreq.c **** 
 133:Middlewares/ST/STM32_USB_Host_Library/Core/Src/usbh_ctlreq.c **** {
 134:Middlewares/ST/STM32_USB_Host_Library/Core/Src/usbh_ctlreq.c ****   USBH_StatusTypeDef status;
 135:Middlewares/ST/STM32_USB_Host_Library/Core/Src/usbh_ctlreq.c ****   uint8_t *pData = phost->device.CfgDesc_Raw;;
 136:Middlewares/ST/STM32_USB_Host_Library/Core/Src/usbh_ctlreq.c **** 
 137:Middlewares/ST/STM32_USB_Host_Library/Core/Src/usbh_ctlreq.c ****   if ((status = USBH_GetDescriptor(phost, (USB_REQ_RECIPIENT_DEVICE | USB_REQ_TYPE_STANDARD),
 138:Middlewares/ST/STM32_USB_Host_Library/Core/Src/usbh_ctlreq.c ****                                    USB_DESC_CONFIGURATION, pData, length)) == USBH_OK)
 139:Middlewares/ST/STM32_USB_Host_Library/Core/Src/usbh_ctlreq.c ****   {
 140:Middlewares/ST/STM32_USB_Host_Library/Core/Src/usbh_ctlreq.c ****     /* Commands successfully sent and Response Received  */
 141:Middlewares/ST/STM32_USB_Host_Library/Core/Src/usbh_ctlreq.c ****     USBH_ParseCfgDesc(&phost->device.CfgDesc, pData, length);
 142:Middlewares/ST/STM32_USB_Host_Library/Core/Src/usbh_ctlreq.c ****   }
 143:Middlewares/ST/STM32_USB_Host_Library/Core/Src/usbh_ctlreq.c **** 
 144:Middlewares/ST/STM32_USB_Host_Library/Core/Src/usbh_ctlreq.c ****   return status;
ARM GAS  C:\Users\Acer\AppData\Local\Temp\cc74HznB.s 			page 4


 145:Middlewares/ST/STM32_USB_Host_Library/Core/Src/usbh_ctlreq.c **** }
 146:Middlewares/ST/STM32_USB_Host_Library/Core/Src/usbh_ctlreq.c **** 
 147:Middlewares/ST/STM32_USB_Host_Library/Core/Src/usbh_ctlreq.c **** 
 148:Middlewares/ST/STM32_USB_Host_Library/Core/Src/usbh_ctlreq.c **** /**
 149:Middlewares/ST/STM32_USB_Host_Library/Core/Src/usbh_ctlreq.c ****   * @brief  USBH_Get_StringDesc
 150:Middlewares/ST/STM32_USB_Host_Library/Core/Src/usbh_ctlreq.c ****   *         Issues string Descriptor command to the device. Once the response
 151:Middlewares/ST/STM32_USB_Host_Library/Core/Src/usbh_ctlreq.c ****   *         received, it parses the string descriptor and updates the status.
 152:Middlewares/ST/STM32_USB_Host_Library/Core/Src/usbh_ctlreq.c ****   * @param  phost: Host Handle
 153:Middlewares/ST/STM32_USB_Host_Library/Core/Src/usbh_ctlreq.c ****   * @param  string_index: String index for the descriptor
 154:Middlewares/ST/STM32_USB_Host_Library/Core/Src/usbh_ctlreq.c ****   * @param  buff: Buffer address for the descriptor
 155:Middlewares/ST/STM32_USB_Host_Library/Core/Src/usbh_ctlreq.c ****   * @param  length: Length of the descriptor
 156:Middlewares/ST/STM32_USB_Host_Library/Core/Src/usbh_ctlreq.c ****   * @retval USBH Status
 157:Middlewares/ST/STM32_USB_Host_Library/Core/Src/usbh_ctlreq.c ****   */
 158:Middlewares/ST/STM32_USB_Host_Library/Core/Src/usbh_ctlreq.c **** USBH_StatusTypeDef USBH_Get_StringDesc(USBH_HandleTypeDef *phost,
 159:Middlewares/ST/STM32_USB_Host_Library/Core/Src/usbh_ctlreq.c ****                                        uint8_t string_index, uint8_t *buff,
 160:Middlewares/ST/STM32_USB_Host_Library/Core/Src/usbh_ctlreq.c ****                                        uint16_t length)
 161:Middlewares/ST/STM32_USB_Host_Library/Core/Src/usbh_ctlreq.c **** {
 162:Middlewares/ST/STM32_USB_Host_Library/Core/Src/usbh_ctlreq.c ****   USBH_StatusTypeDef status;
 163:Middlewares/ST/STM32_USB_Host_Library/Core/Src/usbh_ctlreq.c **** 
 164:Middlewares/ST/STM32_USB_Host_Library/Core/Src/usbh_ctlreq.c ****   if ((status = USBH_GetDescriptor(phost,
 165:Middlewares/ST/STM32_USB_Host_Library/Core/Src/usbh_ctlreq.c ****                                    USB_REQ_RECIPIENT_DEVICE | USB_REQ_TYPE_STANDARD,
 166:Middlewares/ST/STM32_USB_Host_Library/Core/Src/usbh_ctlreq.c ****                                    USB_DESC_STRING | string_index,
 167:Middlewares/ST/STM32_USB_Host_Library/Core/Src/usbh_ctlreq.c ****                                    phost->device.Data, length)) == USBH_OK)
 168:Middlewares/ST/STM32_USB_Host_Library/Core/Src/usbh_ctlreq.c ****   {
 169:Middlewares/ST/STM32_USB_Host_Library/Core/Src/usbh_ctlreq.c ****     /* Commands successfully sent and Response Received  */
 170:Middlewares/ST/STM32_USB_Host_Library/Core/Src/usbh_ctlreq.c ****     USBH_ParseStringDesc(phost->device.Data, buff, length);
 171:Middlewares/ST/STM32_USB_Host_Library/Core/Src/usbh_ctlreq.c ****   }
 172:Middlewares/ST/STM32_USB_Host_Library/Core/Src/usbh_ctlreq.c **** 
 173:Middlewares/ST/STM32_USB_Host_Library/Core/Src/usbh_ctlreq.c ****   return status;
 174:Middlewares/ST/STM32_USB_Host_Library/Core/Src/usbh_ctlreq.c **** }
 175:Middlewares/ST/STM32_USB_Host_Library/Core/Src/usbh_ctlreq.c **** 
 176:Middlewares/ST/STM32_USB_Host_Library/Core/Src/usbh_ctlreq.c **** 
 177:Middlewares/ST/STM32_USB_Host_Library/Core/Src/usbh_ctlreq.c **** /**
 178:Middlewares/ST/STM32_USB_Host_Library/Core/Src/usbh_ctlreq.c ****   * @brief  USBH_GetDescriptor
 179:Middlewares/ST/STM32_USB_Host_Library/Core/Src/usbh_ctlreq.c ****   *         Issues Descriptor command to the device. Once the response received,
 180:Middlewares/ST/STM32_USB_Host_Library/Core/Src/usbh_ctlreq.c ****   *         it parses the descriptor and updates the status.
 181:Middlewares/ST/STM32_USB_Host_Library/Core/Src/usbh_ctlreq.c ****   * @param  phost: Host Handle
 182:Middlewares/ST/STM32_USB_Host_Library/Core/Src/usbh_ctlreq.c ****   * @param  req_type: Descriptor type
 183:Middlewares/ST/STM32_USB_Host_Library/Core/Src/usbh_ctlreq.c ****   * @param  value_idx: Value for the GetDescriptr request
 184:Middlewares/ST/STM32_USB_Host_Library/Core/Src/usbh_ctlreq.c ****   * @param  buff: Buffer to store the descriptor
 185:Middlewares/ST/STM32_USB_Host_Library/Core/Src/usbh_ctlreq.c ****   * @param  length: Length of the descriptor
 186:Middlewares/ST/STM32_USB_Host_Library/Core/Src/usbh_ctlreq.c ****   * @retval USBH Status
 187:Middlewares/ST/STM32_USB_Host_Library/Core/Src/usbh_ctlreq.c ****   */
 188:Middlewares/ST/STM32_USB_Host_Library/Core/Src/usbh_ctlreq.c **** USBH_StatusTypeDef USBH_GetDescriptor(USBH_HandleTypeDef *phost,
 189:Middlewares/ST/STM32_USB_Host_Library/Core/Src/usbh_ctlreq.c ****                                       uint8_t  req_type,
 190:Middlewares/ST/STM32_USB_Host_Library/Core/Src/usbh_ctlreq.c ****                                       uint16_t value_idx,
 191:Middlewares/ST/STM32_USB_Host_Library/Core/Src/usbh_ctlreq.c ****                                       uint8_t *buff,
 192:Middlewares/ST/STM32_USB_Host_Library/Core/Src/usbh_ctlreq.c ****                                       uint16_t length)
 193:Middlewares/ST/STM32_USB_Host_Library/Core/Src/usbh_ctlreq.c **** {
 194:Middlewares/ST/STM32_USB_Host_Library/Core/Src/usbh_ctlreq.c ****   if (phost->RequestState == CMD_SEND)
 195:Middlewares/ST/STM32_USB_Host_Library/Core/Src/usbh_ctlreq.c ****   {
 196:Middlewares/ST/STM32_USB_Host_Library/Core/Src/usbh_ctlreq.c ****     phost->Control.setup.b.bmRequestType = USB_D2H | req_type;
 197:Middlewares/ST/STM32_USB_Host_Library/Core/Src/usbh_ctlreq.c ****     phost->Control.setup.b.bRequest = USB_REQ_GET_DESCRIPTOR;
 198:Middlewares/ST/STM32_USB_Host_Library/Core/Src/usbh_ctlreq.c ****     phost->Control.setup.b.wValue.w = value_idx;
 199:Middlewares/ST/STM32_USB_Host_Library/Core/Src/usbh_ctlreq.c **** 
 200:Middlewares/ST/STM32_USB_Host_Library/Core/Src/usbh_ctlreq.c ****     if ((value_idx & 0xff00U) == USB_DESC_STRING)
 201:Middlewares/ST/STM32_USB_Host_Library/Core/Src/usbh_ctlreq.c ****     {
ARM GAS  C:\Users\Acer\AppData\Local\Temp\cc74HznB.s 			page 5


 202:Middlewares/ST/STM32_USB_Host_Library/Core/Src/usbh_ctlreq.c ****       phost->Control.setup.b.wIndex.w = 0x0409U;
 203:Middlewares/ST/STM32_USB_Host_Library/Core/Src/usbh_ctlreq.c ****     }
 204:Middlewares/ST/STM32_USB_Host_Library/Core/Src/usbh_ctlreq.c ****     else
 205:Middlewares/ST/STM32_USB_Host_Library/Core/Src/usbh_ctlreq.c ****     {
 206:Middlewares/ST/STM32_USB_Host_Library/Core/Src/usbh_ctlreq.c ****       phost->Control.setup.b.wIndex.w = 0U;
 207:Middlewares/ST/STM32_USB_Host_Library/Core/Src/usbh_ctlreq.c ****     }
 208:Middlewares/ST/STM32_USB_Host_Library/Core/Src/usbh_ctlreq.c ****     phost->Control.setup.b.wLength.w = length;
 209:Middlewares/ST/STM32_USB_Host_Library/Core/Src/usbh_ctlreq.c ****   }
 210:Middlewares/ST/STM32_USB_Host_Library/Core/Src/usbh_ctlreq.c **** 
 211:Middlewares/ST/STM32_USB_Host_Library/Core/Src/usbh_ctlreq.c ****   return USBH_CtlReq(phost, buff, length);
 212:Middlewares/ST/STM32_USB_Host_Library/Core/Src/usbh_ctlreq.c **** }
 213:Middlewares/ST/STM32_USB_Host_Library/Core/Src/usbh_ctlreq.c **** 
 214:Middlewares/ST/STM32_USB_Host_Library/Core/Src/usbh_ctlreq.c **** 
 215:Middlewares/ST/STM32_USB_Host_Library/Core/Src/usbh_ctlreq.c **** /**
 216:Middlewares/ST/STM32_USB_Host_Library/Core/Src/usbh_ctlreq.c ****   * @brief  USBH_SetAddress
 217:Middlewares/ST/STM32_USB_Host_Library/Core/Src/usbh_ctlreq.c ****   *         This command sets the address to the connected device
 218:Middlewares/ST/STM32_USB_Host_Library/Core/Src/usbh_ctlreq.c ****   * @param  phost: Host Handle
 219:Middlewares/ST/STM32_USB_Host_Library/Core/Src/usbh_ctlreq.c ****   * @param  DeviceAddress: Device address to assign
 220:Middlewares/ST/STM32_USB_Host_Library/Core/Src/usbh_ctlreq.c ****   * @retval USBH Status
 221:Middlewares/ST/STM32_USB_Host_Library/Core/Src/usbh_ctlreq.c ****   */
 222:Middlewares/ST/STM32_USB_Host_Library/Core/Src/usbh_ctlreq.c **** USBH_StatusTypeDef USBH_SetAddress(USBH_HandleTypeDef *phost,
 223:Middlewares/ST/STM32_USB_Host_Library/Core/Src/usbh_ctlreq.c ****                                    uint8_t DeviceAddress)
 224:Middlewares/ST/STM32_USB_Host_Library/Core/Src/usbh_ctlreq.c **** {
 225:Middlewares/ST/STM32_USB_Host_Library/Core/Src/usbh_ctlreq.c ****   if (phost->RequestState == CMD_SEND)
 226:Middlewares/ST/STM32_USB_Host_Library/Core/Src/usbh_ctlreq.c ****   {
 227:Middlewares/ST/STM32_USB_Host_Library/Core/Src/usbh_ctlreq.c ****     phost->Control.setup.b.bmRequestType = USB_H2D | USB_REQ_RECIPIENT_DEVICE | \
 228:Middlewares/ST/STM32_USB_Host_Library/Core/Src/usbh_ctlreq.c ****                                            USB_REQ_TYPE_STANDARD;
 229:Middlewares/ST/STM32_USB_Host_Library/Core/Src/usbh_ctlreq.c **** 
 230:Middlewares/ST/STM32_USB_Host_Library/Core/Src/usbh_ctlreq.c ****     phost->Control.setup.b.bRequest = USB_REQ_SET_ADDRESS;
 231:Middlewares/ST/STM32_USB_Host_Library/Core/Src/usbh_ctlreq.c **** 
 232:Middlewares/ST/STM32_USB_Host_Library/Core/Src/usbh_ctlreq.c ****     phost->Control.setup.b.wValue.w = (uint16_t)DeviceAddress;
 233:Middlewares/ST/STM32_USB_Host_Library/Core/Src/usbh_ctlreq.c ****     phost->Control.setup.b.wIndex.w = 0U;
 234:Middlewares/ST/STM32_USB_Host_Library/Core/Src/usbh_ctlreq.c ****     phost->Control.setup.b.wLength.w = 0U;
 235:Middlewares/ST/STM32_USB_Host_Library/Core/Src/usbh_ctlreq.c ****   }
 236:Middlewares/ST/STM32_USB_Host_Library/Core/Src/usbh_ctlreq.c **** 
 237:Middlewares/ST/STM32_USB_Host_Library/Core/Src/usbh_ctlreq.c ****   return USBH_CtlReq(phost, 0U, 0U);
 238:Middlewares/ST/STM32_USB_Host_Library/Core/Src/usbh_ctlreq.c **** }
 239:Middlewares/ST/STM32_USB_Host_Library/Core/Src/usbh_ctlreq.c **** 
 240:Middlewares/ST/STM32_USB_Host_Library/Core/Src/usbh_ctlreq.c **** 
 241:Middlewares/ST/STM32_USB_Host_Library/Core/Src/usbh_ctlreq.c **** /**
 242:Middlewares/ST/STM32_USB_Host_Library/Core/Src/usbh_ctlreq.c ****   * @brief  USBH_SetCfg
 243:Middlewares/ST/STM32_USB_Host_Library/Core/Src/usbh_ctlreq.c ****   *         The command sets the configuration value to the connected device
 244:Middlewares/ST/STM32_USB_Host_Library/Core/Src/usbh_ctlreq.c ****   * @param  phost: Host Handle
 245:Middlewares/ST/STM32_USB_Host_Library/Core/Src/usbh_ctlreq.c ****   * @param  cfg_idx: Configuration value
 246:Middlewares/ST/STM32_USB_Host_Library/Core/Src/usbh_ctlreq.c ****   * @retval USBH Status
 247:Middlewares/ST/STM32_USB_Host_Library/Core/Src/usbh_ctlreq.c ****   */
 248:Middlewares/ST/STM32_USB_Host_Library/Core/Src/usbh_ctlreq.c **** USBH_StatusTypeDef USBH_SetCfg(USBH_HandleTypeDef *phost, uint16_t cfg_idx)
 249:Middlewares/ST/STM32_USB_Host_Library/Core/Src/usbh_ctlreq.c **** {
 250:Middlewares/ST/STM32_USB_Host_Library/Core/Src/usbh_ctlreq.c ****   if (phost->RequestState == CMD_SEND)
 251:Middlewares/ST/STM32_USB_Host_Library/Core/Src/usbh_ctlreq.c ****   {
 252:Middlewares/ST/STM32_USB_Host_Library/Core/Src/usbh_ctlreq.c ****     phost->Control.setup.b.bmRequestType = USB_H2D | USB_REQ_RECIPIENT_DEVICE
 253:Middlewares/ST/STM32_USB_Host_Library/Core/Src/usbh_ctlreq.c ****                                            | USB_REQ_TYPE_STANDARD;
 254:Middlewares/ST/STM32_USB_Host_Library/Core/Src/usbh_ctlreq.c **** 
 255:Middlewares/ST/STM32_USB_Host_Library/Core/Src/usbh_ctlreq.c ****     phost->Control.setup.b.bRequest = USB_REQ_SET_CONFIGURATION;
 256:Middlewares/ST/STM32_USB_Host_Library/Core/Src/usbh_ctlreq.c ****     phost->Control.setup.b.wValue.w = cfg_idx;
 257:Middlewares/ST/STM32_USB_Host_Library/Core/Src/usbh_ctlreq.c ****     phost->Control.setup.b.wIndex.w = 0U;
 258:Middlewares/ST/STM32_USB_Host_Library/Core/Src/usbh_ctlreq.c ****     phost->Control.setup.b.wLength.w = 0U;
ARM GAS  C:\Users\Acer\AppData\Local\Temp\cc74HznB.s 			page 6


 259:Middlewares/ST/STM32_USB_Host_Library/Core/Src/usbh_ctlreq.c ****   }
 260:Middlewares/ST/STM32_USB_Host_Library/Core/Src/usbh_ctlreq.c **** 
 261:Middlewares/ST/STM32_USB_Host_Library/Core/Src/usbh_ctlreq.c ****   return USBH_CtlReq(phost, 0U, 0U);
 262:Middlewares/ST/STM32_USB_Host_Library/Core/Src/usbh_ctlreq.c **** }
 263:Middlewares/ST/STM32_USB_Host_Library/Core/Src/usbh_ctlreq.c **** 
 264:Middlewares/ST/STM32_USB_Host_Library/Core/Src/usbh_ctlreq.c **** 
 265:Middlewares/ST/STM32_USB_Host_Library/Core/Src/usbh_ctlreq.c **** /**
 266:Middlewares/ST/STM32_USB_Host_Library/Core/Src/usbh_ctlreq.c ****   * @brief  USBH_SetInterface
 267:Middlewares/ST/STM32_USB_Host_Library/Core/Src/usbh_ctlreq.c ****   *         The command sets the Interface value to the connected device
 268:Middlewares/ST/STM32_USB_Host_Library/Core/Src/usbh_ctlreq.c ****   * @param  phost: Host Handle
 269:Middlewares/ST/STM32_USB_Host_Library/Core/Src/usbh_ctlreq.c ****   * @param  altSetting: Interface value
 270:Middlewares/ST/STM32_USB_Host_Library/Core/Src/usbh_ctlreq.c ****   * @retval USBH Status
 271:Middlewares/ST/STM32_USB_Host_Library/Core/Src/usbh_ctlreq.c ****   */
 272:Middlewares/ST/STM32_USB_Host_Library/Core/Src/usbh_ctlreq.c **** USBH_StatusTypeDef USBH_SetInterface(USBH_HandleTypeDef *phost, uint8_t ep_num,
 273:Middlewares/ST/STM32_USB_Host_Library/Core/Src/usbh_ctlreq.c ****                                      uint8_t altSetting)
 274:Middlewares/ST/STM32_USB_Host_Library/Core/Src/usbh_ctlreq.c **** {
 275:Middlewares/ST/STM32_USB_Host_Library/Core/Src/usbh_ctlreq.c ****   if (phost->RequestState == CMD_SEND)
 276:Middlewares/ST/STM32_USB_Host_Library/Core/Src/usbh_ctlreq.c ****   {
 277:Middlewares/ST/STM32_USB_Host_Library/Core/Src/usbh_ctlreq.c ****     phost->Control.setup.b.bmRequestType = USB_H2D | USB_REQ_RECIPIENT_INTERFACE
 278:Middlewares/ST/STM32_USB_Host_Library/Core/Src/usbh_ctlreq.c ****                                            | USB_REQ_TYPE_STANDARD;
 279:Middlewares/ST/STM32_USB_Host_Library/Core/Src/usbh_ctlreq.c **** 
 280:Middlewares/ST/STM32_USB_Host_Library/Core/Src/usbh_ctlreq.c ****     phost->Control.setup.b.bRequest = USB_REQ_SET_INTERFACE;
 281:Middlewares/ST/STM32_USB_Host_Library/Core/Src/usbh_ctlreq.c ****     phost->Control.setup.b.wValue.w = altSetting;
 282:Middlewares/ST/STM32_USB_Host_Library/Core/Src/usbh_ctlreq.c ****     phost->Control.setup.b.wIndex.w = ep_num;
 283:Middlewares/ST/STM32_USB_Host_Library/Core/Src/usbh_ctlreq.c ****     phost->Control.setup.b.wLength.w = 0U;
 284:Middlewares/ST/STM32_USB_Host_Library/Core/Src/usbh_ctlreq.c ****   }
 285:Middlewares/ST/STM32_USB_Host_Library/Core/Src/usbh_ctlreq.c **** 
 286:Middlewares/ST/STM32_USB_Host_Library/Core/Src/usbh_ctlreq.c ****   return USBH_CtlReq(phost, 0U, 0U);
 287:Middlewares/ST/STM32_USB_Host_Library/Core/Src/usbh_ctlreq.c **** }
 288:Middlewares/ST/STM32_USB_Host_Library/Core/Src/usbh_ctlreq.c **** 
 289:Middlewares/ST/STM32_USB_Host_Library/Core/Src/usbh_ctlreq.c **** 
 290:Middlewares/ST/STM32_USB_Host_Library/Core/Src/usbh_ctlreq.c **** /**
 291:Middlewares/ST/STM32_USB_Host_Library/Core/Src/usbh_ctlreq.c ****   * @brief  USBH_SetFeature
 292:Middlewares/ST/STM32_USB_Host_Library/Core/Src/usbh_ctlreq.c ****   *         The command sets the device features (remote wakeup feature,..)
 293:Middlewares/ST/STM32_USB_Host_Library/Core/Src/usbh_ctlreq.c ****   * @param  pdev: Selected device
 294:Middlewares/ST/STM32_USB_Host_Library/Core/Src/usbh_ctlreq.c ****   * @param  itf_idx
 295:Middlewares/ST/STM32_USB_Host_Library/Core/Src/usbh_ctlreq.c ****   * @retval Status
 296:Middlewares/ST/STM32_USB_Host_Library/Core/Src/usbh_ctlreq.c **** */
 297:Middlewares/ST/STM32_USB_Host_Library/Core/Src/usbh_ctlreq.c **** USBH_StatusTypeDef USBH_SetFeature(USBH_HandleTypeDef *phost, uint8_t wValue)
 298:Middlewares/ST/STM32_USB_Host_Library/Core/Src/usbh_ctlreq.c **** {
 299:Middlewares/ST/STM32_USB_Host_Library/Core/Src/usbh_ctlreq.c ****   if (phost->RequestState == CMD_SEND)
 300:Middlewares/ST/STM32_USB_Host_Library/Core/Src/usbh_ctlreq.c ****   {
 301:Middlewares/ST/STM32_USB_Host_Library/Core/Src/usbh_ctlreq.c ****     phost->Control.setup.b.bmRequestType = USB_H2D | USB_REQ_RECIPIENT_DEVICE
 302:Middlewares/ST/STM32_USB_Host_Library/Core/Src/usbh_ctlreq.c ****                                            | USB_REQ_TYPE_STANDARD;
 303:Middlewares/ST/STM32_USB_Host_Library/Core/Src/usbh_ctlreq.c **** 
 304:Middlewares/ST/STM32_USB_Host_Library/Core/Src/usbh_ctlreq.c ****     phost->Control.setup.b.bRequest = USB_REQ_SET_FEATURE;
 305:Middlewares/ST/STM32_USB_Host_Library/Core/Src/usbh_ctlreq.c ****     phost->Control.setup.b.wValue.w = wValue;
 306:Middlewares/ST/STM32_USB_Host_Library/Core/Src/usbh_ctlreq.c ****     phost->Control.setup.b.wIndex.w = 0U;
 307:Middlewares/ST/STM32_USB_Host_Library/Core/Src/usbh_ctlreq.c ****     phost->Control.setup.b.wLength.w = 0U;
 308:Middlewares/ST/STM32_USB_Host_Library/Core/Src/usbh_ctlreq.c ****   }
 309:Middlewares/ST/STM32_USB_Host_Library/Core/Src/usbh_ctlreq.c **** 
 310:Middlewares/ST/STM32_USB_Host_Library/Core/Src/usbh_ctlreq.c ****   return USBH_CtlReq(phost, 0U, 0U);
 311:Middlewares/ST/STM32_USB_Host_Library/Core/Src/usbh_ctlreq.c **** }
 312:Middlewares/ST/STM32_USB_Host_Library/Core/Src/usbh_ctlreq.c **** 
 313:Middlewares/ST/STM32_USB_Host_Library/Core/Src/usbh_ctlreq.c **** 
 314:Middlewares/ST/STM32_USB_Host_Library/Core/Src/usbh_ctlreq.c **** /**
 315:Middlewares/ST/STM32_USB_Host_Library/Core/Src/usbh_ctlreq.c ****   * @brief  USBH_ClrFeature
ARM GAS  C:\Users\Acer\AppData\Local\Temp\cc74HznB.s 			page 7


 316:Middlewares/ST/STM32_USB_Host_Library/Core/Src/usbh_ctlreq.c ****   *         This request is used to clear or disable a specific feature.
 317:Middlewares/ST/STM32_USB_Host_Library/Core/Src/usbh_ctlreq.c ****   * @param  phost: Host Handle
 318:Middlewares/ST/STM32_USB_Host_Library/Core/Src/usbh_ctlreq.c ****   * @param  ep_num: endpoint number
 319:Middlewares/ST/STM32_USB_Host_Library/Core/Src/usbh_ctlreq.c ****   * @param  hc_num: Host channel number
 320:Middlewares/ST/STM32_USB_Host_Library/Core/Src/usbh_ctlreq.c ****   * @retval USBH Status
 321:Middlewares/ST/STM32_USB_Host_Library/Core/Src/usbh_ctlreq.c ****   */
 322:Middlewares/ST/STM32_USB_Host_Library/Core/Src/usbh_ctlreq.c **** USBH_StatusTypeDef USBH_ClrFeature(USBH_HandleTypeDef *phost, uint8_t ep_num)
 323:Middlewares/ST/STM32_USB_Host_Library/Core/Src/usbh_ctlreq.c **** {
 324:Middlewares/ST/STM32_USB_Host_Library/Core/Src/usbh_ctlreq.c ****   if (phost->RequestState == CMD_SEND)
 325:Middlewares/ST/STM32_USB_Host_Library/Core/Src/usbh_ctlreq.c ****   {
 326:Middlewares/ST/STM32_USB_Host_Library/Core/Src/usbh_ctlreq.c ****     phost->Control.setup.b.bmRequestType = USB_H2D | USB_REQ_RECIPIENT_ENDPOINT
 327:Middlewares/ST/STM32_USB_Host_Library/Core/Src/usbh_ctlreq.c ****                                            | USB_REQ_TYPE_STANDARD;
 328:Middlewares/ST/STM32_USB_Host_Library/Core/Src/usbh_ctlreq.c **** 
 329:Middlewares/ST/STM32_USB_Host_Library/Core/Src/usbh_ctlreq.c ****     phost->Control.setup.b.bRequest = USB_REQ_CLEAR_FEATURE;
 330:Middlewares/ST/STM32_USB_Host_Library/Core/Src/usbh_ctlreq.c ****     phost->Control.setup.b.wValue.w = FEATURE_SELECTOR_ENDPOINT;
 331:Middlewares/ST/STM32_USB_Host_Library/Core/Src/usbh_ctlreq.c ****     phost->Control.setup.b.wIndex.w = ep_num;
 332:Middlewares/ST/STM32_USB_Host_Library/Core/Src/usbh_ctlreq.c ****     phost->Control.setup.b.wLength.w = 0U;
 333:Middlewares/ST/STM32_USB_Host_Library/Core/Src/usbh_ctlreq.c ****   }
 334:Middlewares/ST/STM32_USB_Host_Library/Core/Src/usbh_ctlreq.c ****   return USBH_CtlReq(phost, 0U, 0U);
 335:Middlewares/ST/STM32_USB_Host_Library/Core/Src/usbh_ctlreq.c **** }
 336:Middlewares/ST/STM32_USB_Host_Library/Core/Src/usbh_ctlreq.c **** 
 337:Middlewares/ST/STM32_USB_Host_Library/Core/Src/usbh_ctlreq.c **** 
 338:Middlewares/ST/STM32_USB_Host_Library/Core/Src/usbh_ctlreq.c **** /**
 339:Middlewares/ST/STM32_USB_Host_Library/Core/Src/usbh_ctlreq.c ****   * @brief  USBH_ParseDevDesc
 340:Middlewares/ST/STM32_USB_Host_Library/Core/Src/usbh_ctlreq.c ****   *         This function Parses the device descriptor
 341:Middlewares/ST/STM32_USB_Host_Library/Core/Src/usbh_ctlreq.c ****   * @param  dev_desc: device_descriptor destination address
 342:Middlewares/ST/STM32_USB_Host_Library/Core/Src/usbh_ctlreq.c ****   * @param  buf: Buffer where the source descriptor is available
 343:Middlewares/ST/STM32_USB_Host_Library/Core/Src/usbh_ctlreq.c ****   * @param  length: Length of the descriptor
 344:Middlewares/ST/STM32_USB_Host_Library/Core/Src/usbh_ctlreq.c ****   * @retval None
 345:Middlewares/ST/STM32_USB_Host_Library/Core/Src/usbh_ctlreq.c ****   */
 346:Middlewares/ST/STM32_USB_Host_Library/Core/Src/usbh_ctlreq.c **** static void  USBH_ParseDevDesc(USBH_DevDescTypeDef *dev_desc, uint8_t *buf,
 347:Middlewares/ST/STM32_USB_Host_Library/Core/Src/usbh_ctlreq.c ****                                uint16_t length)
 348:Middlewares/ST/STM32_USB_Host_Library/Core/Src/usbh_ctlreq.c **** {
  29              		.loc 1 348 1 view -0
  30              		.cfi_startproc
  31              		@ args = 0, pretend = 0, frame = 0
  32              		@ frame_needed = 0, uses_anonymous_args = 0
  33              		@ link register save eliminated.
 349:Middlewares/ST/STM32_USB_Host_Library/Core/Src/usbh_ctlreq.c ****   dev_desc->bLength            = *(uint8_t *)(buf +  0);
  34              		.loc 1 349 3 view .LVU1
  35              		.loc 1 349 34 is_stmt 0 view .LVU2
  36 0000 0B78     		ldrb	r3, [r1]	@ zero_extendqisi2
  37              		.loc 1 349 32 view .LVU3
  38 0002 0370     		strb	r3, [r0]
 350:Middlewares/ST/STM32_USB_Host_Library/Core/Src/usbh_ctlreq.c ****   dev_desc->bDescriptorType    = *(uint8_t *)(buf +  1);
  39              		.loc 1 350 3 is_stmt 1 view .LVU4
  40              		.loc 1 350 32 is_stmt 0 view .LVU5
  41 0004 4B78     		ldrb	r3, [r1, #1]	@ zero_extendqisi2
  42 0006 4370     		strb	r3, [r0, #1]
 351:Middlewares/ST/STM32_USB_Host_Library/Core/Src/usbh_ctlreq.c ****   dev_desc->bcdUSB             = LE16(buf +  2);
  43              		.loc 1 351 3 is_stmt 1 view .LVU6
  44              		.loc 1 351 34 is_stmt 0 view .LVU7
  45 0008 8B78     		ldrb	r3, [r1, #2]	@ zero_extendqisi2
  46 000a 91F803C0 		ldrb	ip, [r1, #3]	@ zero_extendqisi2
  47 000e 43EA0C23 		orr	r3, r3, ip, lsl #8
  48              		.loc 1 351 32 view .LVU8
  49 0012 4380     		strh	r3, [r0, #2]	@ movhi
ARM GAS  C:\Users\Acer\AppData\Local\Temp\cc74HznB.s 			page 8


 352:Middlewares/ST/STM32_USB_Host_Library/Core/Src/usbh_ctlreq.c ****   dev_desc->bDeviceClass       = *(uint8_t *)(buf +  4);
  50              		.loc 1 352 3 is_stmt 1 view .LVU9
  51              		.loc 1 352 32 is_stmt 0 view .LVU10
  52 0014 0B79     		ldrb	r3, [r1, #4]	@ zero_extendqisi2
  53 0016 0371     		strb	r3, [r0, #4]
 353:Middlewares/ST/STM32_USB_Host_Library/Core/Src/usbh_ctlreq.c ****   dev_desc->bDeviceSubClass    = *(uint8_t *)(buf +  5);
  54              		.loc 1 353 3 is_stmt 1 view .LVU11
  55              		.loc 1 353 32 is_stmt 0 view .LVU12
  56 0018 4B79     		ldrb	r3, [r1, #5]	@ zero_extendqisi2
  57 001a 4371     		strb	r3, [r0, #5]
 354:Middlewares/ST/STM32_USB_Host_Library/Core/Src/usbh_ctlreq.c ****   dev_desc->bDeviceProtocol    = *(uint8_t *)(buf +  6);
  58              		.loc 1 354 3 is_stmt 1 view .LVU13
  59              		.loc 1 354 32 is_stmt 0 view .LVU14
  60 001c 8B79     		ldrb	r3, [r1, #6]	@ zero_extendqisi2
  61 001e 8371     		strb	r3, [r0, #6]
 355:Middlewares/ST/STM32_USB_Host_Library/Core/Src/usbh_ctlreq.c ****   dev_desc->bMaxPacketSize     = *(uint8_t *)(buf +  7);
  62              		.loc 1 355 3 is_stmt 1 view .LVU15
  63              		.loc 1 355 32 is_stmt 0 view .LVU16
  64 0020 CB79     		ldrb	r3, [r1, #7]	@ zero_extendqisi2
  65 0022 C371     		strb	r3, [r0, #7]
 356:Middlewares/ST/STM32_USB_Host_Library/Core/Src/usbh_ctlreq.c **** 
 357:Middlewares/ST/STM32_USB_Host_Library/Core/Src/usbh_ctlreq.c ****   if (length > 8U)
  66              		.loc 1 357 3 is_stmt 1 view .LVU17
  67              		.loc 1 357 6 is_stmt 0 view .LVU18
  68 0024 082A     		cmp	r2, #8
  69 0026 16D9     		bls	.L1
 358:Middlewares/ST/STM32_USB_Host_Library/Core/Src/usbh_ctlreq.c ****   {
 359:Middlewares/ST/STM32_USB_Host_Library/Core/Src/usbh_ctlreq.c ****     /* For 1st time after device connection, Host may issue only 8 bytes for
 360:Middlewares/ST/STM32_USB_Host_Library/Core/Src/usbh_ctlreq.c ****     Device Descriptor Length  */
 361:Middlewares/ST/STM32_USB_Host_Library/Core/Src/usbh_ctlreq.c ****     dev_desc->idVendor           = LE16(buf +  8);
  70              		.loc 1 361 5 is_stmt 1 view .LVU19
  71              		.loc 1 361 36 is_stmt 0 view .LVU20
  72 0028 0B7A     		ldrb	r3, [r1, #8]	@ zero_extendqisi2
  73 002a 4A7A     		ldrb	r2, [r1, #9]	@ zero_extendqisi2
  74              	.LVL1:
  75              		.loc 1 361 36 view .LVU21
  76 002c 43EA0223 		orr	r3, r3, r2, lsl #8
  77              		.loc 1 361 34 view .LVU22
  78 0030 0381     		strh	r3, [r0, #8]	@ movhi
 362:Middlewares/ST/STM32_USB_Host_Library/Core/Src/usbh_ctlreq.c ****     dev_desc->idProduct          = LE16(buf + 10);
  79              		.loc 1 362 5 is_stmt 1 view .LVU23
  80              		.loc 1 362 36 is_stmt 0 view .LVU24
  81 0032 8B7A     		ldrb	r3, [r1, #10]	@ zero_extendqisi2
  82 0034 CA7A     		ldrb	r2, [r1, #11]	@ zero_extendqisi2
  83 0036 43EA0223 		orr	r3, r3, r2, lsl #8
  84              		.loc 1 362 34 view .LVU25
  85 003a 4381     		strh	r3, [r0, #10]	@ movhi
 363:Middlewares/ST/STM32_USB_Host_Library/Core/Src/usbh_ctlreq.c ****     dev_desc->bcdDevice          = LE16(buf + 12);
  86              		.loc 1 363 5 is_stmt 1 view .LVU26
  87              		.loc 1 363 36 is_stmt 0 view .LVU27
  88 003c 0B7B     		ldrb	r3, [r1, #12]	@ zero_extendqisi2
  89 003e 4A7B     		ldrb	r2, [r1, #13]	@ zero_extendqisi2
  90 0040 43EA0223 		orr	r3, r3, r2, lsl #8
  91              		.loc 1 363 34 view .LVU28
  92 0044 8381     		strh	r3, [r0, #12]	@ movhi
 364:Middlewares/ST/STM32_USB_Host_Library/Core/Src/usbh_ctlreq.c ****     dev_desc->iManufacturer      = *(uint8_t *)(buf + 14);
  93              		.loc 1 364 5 is_stmt 1 view .LVU29
ARM GAS  C:\Users\Acer\AppData\Local\Temp\cc74HznB.s 			page 9


  94              		.loc 1 364 34 is_stmt 0 view .LVU30
  95 0046 8B7B     		ldrb	r3, [r1, #14]	@ zero_extendqisi2
  96 0048 8373     		strb	r3, [r0, #14]
 365:Middlewares/ST/STM32_USB_Host_Library/Core/Src/usbh_ctlreq.c ****     dev_desc->iProduct           = *(uint8_t *)(buf + 15);
  97              		.loc 1 365 5 is_stmt 1 view .LVU31
  98              		.loc 1 365 34 is_stmt 0 view .LVU32
  99 004a CB7B     		ldrb	r3, [r1, #15]	@ zero_extendqisi2
 100 004c C373     		strb	r3, [r0, #15]
 366:Middlewares/ST/STM32_USB_Host_Library/Core/Src/usbh_ctlreq.c ****     dev_desc->iSerialNumber      = *(uint8_t *)(buf + 16);
 101              		.loc 1 366 5 is_stmt 1 view .LVU33
 102              		.loc 1 366 34 is_stmt 0 view .LVU34
 103 004e 0B7C     		ldrb	r3, [r1, #16]	@ zero_extendqisi2
 104 0050 0374     		strb	r3, [r0, #16]
 367:Middlewares/ST/STM32_USB_Host_Library/Core/Src/usbh_ctlreq.c ****     dev_desc->bNumConfigurations = *(uint8_t *)(buf + 17);
 105              		.loc 1 367 5 is_stmt 1 view .LVU35
 106              		.loc 1 367 34 is_stmt 0 view .LVU36
 107 0052 4B7C     		ldrb	r3, [r1, #17]	@ zero_extendqisi2
 108 0054 4374     		strb	r3, [r0, #17]
 109              	.L1:
 368:Middlewares/ST/STM32_USB_Host_Library/Core/Src/usbh_ctlreq.c ****   }
 369:Middlewares/ST/STM32_USB_Host_Library/Core/Src/usbh_ctlreq.c **** }
 110              		.loc 1 369 1 view .LVU37
 111 0056 7047     		bx	lr
 112              		.cfi_endproc
 113              	.LFE142:
 115              		.section	.text.USBH_ParseInterfaceDesc,"ax",%progbits
 116              		.align	1
 117              		.syntax unified
 118              		.thumb
 119              		.thumb_func
 121              	USBH_ParseInterfaceDesc:
 122              	.LVL2:
 123              	.LFB144:
 370:Middlewares/ST/STM32_USB_Host_Library/Core/Src/usbh_ctlreq.c **** 
 371:Middlewares/ST/STM32_USB_Host_Library/Core/Src/usbh_ctlreq.c **** 
 372:Middlewares/ST/STM32_USB_Host_Library/Core/Src/usbh_ctlreq.c **** /**
 373:Middlewares/ST/STM32_USB_Host_Library/Core/Src/usbh_ctlreq.c ****   * @brief  USBH_ParseCfgDesc
 374:Middlewares/ST/STM32_USB_Host_Library/Core/Src/usbh_ctlreq.c ****   *         This function Parses the configuration descriptor
 375:Middlewares/ST/STM32_USB_Host_Library/Core/Src/usbh_ctlreq.c ****   * @param  cfg_desc: Configuration Descriptor address
 376:Middlewares/ST/STM32_USB_Host_Library/Core/Src/usbh_ctlreq.c ****   * @param  buf: Buffer where the source descriptor is available
 377:Middlewares/ST/STM32_USB_Host_Library/Core/Src/usbh_ctlreq.c ****   * @param  length: Length of the descriptor
 378:Middlewares/ST/STM32_USB_Host_Library/Core/Src/usbh_ctlreq.c ****   * @retval None
 379:Middlewares/ST/STM32_USB_Host_Library/Core/Src/usbh_ctlreq.c ****   */
 380:Middlewares/ST/STM32_USB_Host_Library/Core/Src/usbh_ctlreq.c **** static void USBH_ParseCfgDesc(USBH_CfgDescTypeDef *cfg_desc, uint8_t *buf,
 381:Middlewares/ST/STM32_USB_Host_Library/Core/Src/usbh_ctlreq.c ****                               uint16_t length)
 382:Middlewares/ST/STM32_USB_Host_Library/Core/Src/usbh_ctlreq.c **** {
 383:Middlewares/ST/STM32_USB_Host_Library/Core/Src/usbh_ctlreq.c ****   USBH_InterfaceDescTypeDef    *pif ;
 384:Middlewares/ST/STM32_USB_Host_Library/Core/Src/usbh_ctlreq.c ****   USBH_EpDescTypeDef           *pep;
 385:Middlewares/ST/STM32_USB_Host_Library/Core/Src/usbh_ctlreq.c ****   USBH_DescHeader_t            *pdesc = (USBH_DescHeader_t *)(void *)buf;
 386:Middlewares/ST/STM32_USB_Host_Library/Core/Src/usbh_ctlreq.c ****   uint16_t                     ptr;
 387:Middlewares/ST/STM32_USB_Host_Library/Core/Src/usbh_ctlreq.c ****   uint8_t                      if_ix = 0U;
 388:Middlewares/ST/STM32_USB_Host_Library/Core/Src/usbh_ctlreq.c ****   uint8_t                      ep_ix = 0U;
 389:Middlewares/ST/STM32_USB_Host_Library/Core/Src/usbh_ctlreq.c **** 
 390:Middlewares/ST/STM32_USB_Host_Library/Core/Src/usbh_ctlreq.c ****   pdesc   = (USBH_DescHeader_t *)(void *)buf;
 391:Middlewares/ST/STM32_USB_Host_Library/Core/Src/usbh_ctlreq.c **** 
 392:Middlewares/ST/STM32_USB_Host_Library/Core/Src/usbh_ctlreq.c ****   /* Parse configuration descriptor */
 393:Middlewares/ST/STM32_USB_Host_Library/Core/Src/usbh_ctlreq.c ****   cfg_desc->bLength             = *(uint8_t *)(buf + 0);
ARM GAS  C:\Users\Acer\AppData\Local\Temp\cc74HznB.s 			page 10


 394:Middlewares/ST/STM32_USB_Host_Library/Core/Src/usbh_ctlreq.c ****   cfg_desc->bDescriptorType     = *(uint8_t *)(buf + 1);
 395:Middlewares/ST/STM32_USB_Host_Library/Core/Src/usbh_ctlreq.c ****   cfg_desc->wTotalLength        = LE16(buf + 2);
 396:Middlewares/ST/STM32_USB_Host_Library/Core/Src/usbh_ctlreq.c ****   cfg_desc->bNumInterfaces      = *(uint8_t *)(buf + 4);
 397:Middlewares/ST/STM32_USB_Host_Library/Core/Src/usbh_ctlreq.c ****   cfg_desc->bConfigurationValue = *(uint8_t *)(buf + 5);
 398:Middlewares/ST/STM32_USB_Host_Library/Core/Src/usbh_ctlreq.c ****   cfg_desc->iConfiguration      = *(uint8_t *)(buf + 6);
 399:Middlewares/ST/STM32_USB_Host_Library/Core/Src/usbh_ctlreq.c ****   cfg_desc->bmAttributes        = *(uint8_t *)(buf + 7);
 400:Middlewares/ST/STM32_USB_Host_Library/Core/Src/usbh_ctlreq.c ****   cfg_desc->bMaxPower           = *(uint8_t *)(buf + 8);
 401:Middlewares/ST/STM32_USB_Host_Library/Core/Src/usbh_ctlreq.c **** 
 402:Middlewares/ST/STM32_USB_Host_Library/Core/Src/usbh_ctlreq.c ****   if (length > USB_CONFIGURATION_DESC_SIZE)
 403:Middlewares/ST/STM32_USB_Host_Library/Core/Src/usbh_ctlreq.c ****   {
 404:Middlewares/ST/STM32_USB_Host_Library/Core/Src/usbh_ctlreq.c ****     ptr = USB_LEN_CFG_DESC;
 405:Middlewares/ST/STM32_USB_Host_Library/Core/Src/usbh_ctlreq.c ****     pif = (USBH_InterfaceDescTypeDef *)0;
 406:Middlewares/ST/STM32_USB_Host_Library/Core/Src/usbh_ctlreq.c **** 
 407:Middlewares/ST/STM32_USB_Host_Library/Core/Src/usbh_ctlreq.c ****     while ((if_ix < USBH_MAX_NUM_INTERFACES) && (ptr < cfg_desc->wTotalLength))
 408:Middlewares/ST/STM32_USB_Host_Library/Core/Src/usbh_ctlreq.c ****     {
 409:Middlewares/ST/STM32_USB_Host_Library/Core/Src/usbh_ctlreq.c ****       pdesc = USBH_GetNextDesc((uint8_t *)(void *)pdesc, &ptr);
 410:Middlewares/ST/STM32_USB_Host_Library/Core/Src/usbh_ctlreq.c ****       if (pdesc->bDescriptorType   == USB_DESC_TYPE_INTERFACE)
 411:Middlewares/ST/STM32_USB_Host_Library/Core/Src/usbh_ctlreq.c ****       {
 412:Middlewares/ST/STM32_USB_Host_Library/Core/Src/usbh_ctlreq.c ****         pif = &cfg_desc->Itf_Desc[if_ix];
 413:Middlewares/ST/STM32_USB_Host_Library/Core/Src/usbh_ctlreq.c ****         USBH_ParseInterfaceDesc(pif, (uint8_t *)(void *)pdesc);
 414:Middlewares/ST/STM32_USB_Host_Library/Core/Src/usbh_ctlreq.c **** 
 415:Middlewares/ST/STM32_USB_Host_Library/Core/Src/usbh_ctlreq.c ****         ep_ix = 0U;
 416:Middlewares/ST/STM32_USB_Host_Library/Core/Src/usbh_ctlreq.c ****         pep = (USBH_EpDescTypeDef *)0;
 417:Middlewares/ST/STM32_USB_Host_Library/Core/Src/usbh_ctlreq.c ****         while ((ep_ix < pif->bNumEndpoints) && (ptr < cfg_desc->wTotalLength))
 418:Middlewares/ST/STM32_USB_Host_Library/Core/Src/usbh_ctlreq.c ****         {
 419:Middlewares/ST/STM32_USB_Host_Library/Core/Src/usbh_ctlreq.c ****           pdesc = USBH_GetNextDesc((uint8_t *)(void *)pdesc, &ptr);
 420:Middlewares/ST/STM32_USB_Host_Library/Core/Src/usbh_ctlreq.c ****           if (pdesc->bDescriptorType   == USB_DESC_TYPE_ENDPOINT)
 421:Middlewares/ST/STM32_USB_Host_Library/Core/Src/usbh_ctlreq.c ****           {
 422:Middlewares/ST/STM32_USB_Host_Library/Core/Src/usbh_ctlreq.c ****             pep = &cfg_desc->Itf_Desc[if_ix].Ep_Desc[ep_ix];
 423:Middlewares/ST/STM32_USB_Host_Library/Core/Src/usbh_ctlreq.c ****             USBH_ParseEPDesc(pep, (uint8_t *)(void *)pdesc);
 424:Middlewares/ST/STM32_USB_Host_Library/Core/Src/usbh_ctlreq.c ****             ep_ix++;
 425:Middlewares/ST/STM32_USB_Host_Library/Core/Src/usbh_ctlreq.c ****           }
 426:Middlewares/ST/STM32_USB_Host_Library/Core/Src/usbh_ctlreq.c ****         }
 427:Middlewares/ST/STM32_USB_Host_Library/Core/Src/usbh_ctlreq.c ****         if_ix++;
 428:Middlewares/ST/STM32_USB_Host_Library/Core/Src/usbh_ctlreq.c ****       }
 429:Middlewares/ST/STM32_USB_Host_Library/Core/Src/usbh_ctlreq.c ****     }
 430:Middlewares/ST/STM32_USB_Host_Library/Core/Src/usbh_ctlreq.c ****   }
 431:Middlewares/ST/STM32_USB_Host_Library/Core/Src/usbh_ctlreq.c **** }
 432:Middlewares/ST/STM32_USB_Host_Library/Core/Src/usbh_ctlreq.c **** 
 433:Middlewares/ST/STM32_USB_Host_Library/Core/Src/usbh_ctlreq.c **** 
 434:Middlewares/ST/STM32_USB_Host_Library/Core/Src/usbh_ctlreq.c **** /**
 435:Middlewares/ST/STM32_USB_Host_Library/Core/Src/usbh_ctlreq.c ****   * @brief  USBH_ParseInterfaceDesc
 436:Middlewares/ST/STM32_USB_Host_Library/Core/Src/usbh_ctlreq.c ****   *         This function Parses the interface descriptor
 437:Middlewares/ST/STM32_USB_Host_Library/Core/Src/usbh_ctlreq.c ****   * @param  if_descriptor : Interface descriptor destination
 438:Middlewares/ST/STM32_USB_Host_Library/Core/Src/usbh_ctlreq.c ****   * @param  buf: Buffer where the descriptor data is available
 439:Middlewares/ST/STM32_USB_Host_Library/Core/Src/usbh_ctlreq.c ****   * @retval None
 440:Middlewares/ST/STM32_USB_Host_Library/Core/Src/usbh_ctlreq.c ****   */
 441:Middlewares/ST/STM32_USB_Host_Library/Core/Src/usbh_ctlreq.c **** static void  USBH_ParseInterfaceDesc(USBH_InterfaceDescTypeDef *if_descriptor,
 442:Middlewares/ST/STM32_USB_Host_Library/Core/Src/usbh_ctlreq.c ****                                      uint8_t *buf)
 443:Middlewares/ST/STM32_USB_Host_Library/Core/Src/usbh_ctlreq.c **** {
 124              		.loc 1 443 1 is_stmt 1 view -0
 125              		.cfi_startproc
 126              		@ args = 0, pretend = 0, frame = 0
 127              		@ frame_needed = 0, uses_anonymous_args = 0
 128              		@ link register save eliminated.
 444:Middlewares/ST/STM32_USB_Host_Library/Core/Src/usbh_ctlreq.c ****   if_descriptor->bLength            = *(uint8_t *)(buf + 0);
 129              		.loc 1 444 3 view .LVU39
ARM GAS  C:\Users\Acer\AppData\Local\Temp\cc74HznB.s 			page 11


 130              		.loc 1 444 39 is_stmt 0 view .LVU40
 131 0000 0B78     		ldrb	r3, [r1]	@ zero_extendqisi2
 132              		.loc 1 444 37 view .LVU41
 133 0002 0370     		strb	r3, [r0]
 445:Middlewares/ST/STM32_USB_Host_Library/Core/Src/usbh_ctlreq.c ****   if_descriptor->bDescriptorType    = *(uint8_t *)(buf + 1);
 134              		.loc 1 445 3 is_stmt 1 view .LVU42
 135              		.loc 1 445 37 is_stmt 0 view .LVU43
 136 0004 4B78     		ldrb	r3, [r1, #1]	@ zero_extendqisi2
 137 0006 4370     		strb	r3, [r0, #1]
 446:Middlewares/ST/STM32_USB_Host_Library/Core/Src/usbh_ctlreq.c ****   if_descriptor->bInterfaceNumber   = *(uint8_t *)(buf + 2);
 138              		.loc 1 446 3 is_stmt 1 view .LVU44
 139              		.loc 1 446 37 is_stmt 0 view .LVU45
 140 0008 8B78     		ldrb	r3, [r1, #2]	@ zero_extendqisi2
 141 000a 8370     		strb	r3, [r0, #2]
 447:Middlewares/ST/STM32_USB_Host_Library/Core/Src/usbh_ctlreq.c ****   if_descriptor->bAlternateSetting  = *(uint8_t *)(buf + 3);
 142              		.loc 1 447 3 is_stmt 1 view .LVU46
 143              		.loc 1 447 37 is_stmt 0 view .LVU47
 144 000c CB78     		ldrb	r3, [r1, #3]	@ zero_extendqisi2
 145 000e C370     		strb	r3, [r0, #3]
 448:Middlewares/ST/STM32_USB_Host_Library/Core/Src/usbh_ctlreq.c ****   if_descriptor->bNumEndpoints      = *(uint8_t *)(buf + 4);
 146              		.loc 1 448 3 is_stmt 1 view .LVU48
 147              		.loc 1 448 37 is_stmt 0 view .LVU49
 148 0010 0B79     		ldrb	r3, [r1, #4]	@ zero_extendqisi2
 149 0012 0371     		strb	r3, [r0, #4]
 449:Middlewares/ST/STM32_USB_Host_Library/Core/Src/usbh_ctlreq.c ****   if_descriptor->bInterfaceClass    = *(uint8_t *)(buf + 5);
 150              		.loc 1 449 3 is_stmt 1 view .LVU50
 151              		.loc 1 449 37 is_stmt 0 view .LVU51
 152 0014 4B79     		ldrb	r3, [r1, #5]	@ zero_extendqisi2
 153 0016 4371     		strb	r3, [r0, #5]
 450:Middlewares/ST/STM32_USB_Host_Library/Core/Src/usbh_ctlreq.c ****   if_descriptor->bInterfaceSubClass = *(uint8_t *)(buf + 6);
 154              		.loc 1 450 3 is_stmt 1 view .LVU52
 155              		.loc 1 450 37 is_stmt 0 view .LVU53
 156 0018 8B79     		ldrb	r3, [r1, #6]	@ zero_extendqisi2
 157 001a 8371     		strb	r3, [r0, #6]
 451:Middlewares/ST/STM32_USB_Host_Library/Core/Src/usbh_ctlreq.c ****   if_descriptor->bInterfaceProtocol = *(uint8_t *)(buf + 7);
 158              		.loc 1 451 3 is_stmt 1 view .LVU54
 159              		.loc 1 451 37 is_stmt 0 view .LVU55
 160 001c CB79     		ldrb	r3, [r1, #7]	@ zero_extendqisi2
 161 001e C371     		strb	r3, [r0, #7]
 452:Middlewares/ST/STM32_USB_Host_Library/Core/Src/usbh_ctlreq.c ****   if_descriptor->iInterface         = *(uint8_t *)(buf + 8);
 162              		.loc 1 452 3 is_stmt 1 view .LVU56
 163              		.loc 1 452 37 is_stmt 0 view .LVU57
 164 0020 0B7A     		ldrb	r3, [r1, #8]	@ zero_extendqisi2
 165 0022 0372     		strb	r3, [r0, #8]
 453:Middlewares/ST/STM32_USB_Host_Library/Core/Src/usbh_ctlreq.c **** }
 166              		.loc 1 453 1 view .LVU58
 167 0024 7047     		bx	lr
 168              		.cfi_endproc
 169              	.LFE144:
 171              		.section	.text.USBH_ParseEPDesc,"ax",%progbits
 172              		.align	1
 173              		.syntax unified
 174              		.thumb
 175              		.thumb_func
 177              	USBH_ParseEPDesc:
 178              	.LVL3:
 179              	.LFB145:
ARM GAS  C:\Users\Acer\AppData\Local\Temp\cc74HznB.s 			page 12


 454:Middlewares/ST/STM32_USB_Host_Library/Core/Src/usbh_ctlreq.c **** 
 455:Middlewares/ST/STM32_USB_Host_Library/Core/Src/usbh_ctlreq.c **** 
 456:Middlewares/ST/STM32_USB_Host_Library/Core/Src/usbh_ctlreq.c **** /**
 457:Middlewares/ST/STM32_USB_Host_Library/Core/Src/usbh_ctlreq.c ****   * @brief  USBH_ParseEPDesc
 458:Middlewares/ST/STM32_USB_Host_Library/Core/Src/usbh_ctlreq.c ****   *         This function Parses the endpoint descriptor
 459:Middlewares/ST/STM32_USB_Host_Library/Core/Src/usbh_ctlreq.c ****   * @param  ep_descriptor: Endpoint descriptor destination address
 460:Middlewares/ST/STM32_USB_Host_Library/Core/Src/usbh_ctlreq.c ****   * @param  buf: Buffer where the parsed descriptor stored
 461:Middlewares/ST/STM32_USB_Host_Library/Core/Src/usbh_ctlreq.c ****   * @retval None
 462:Middlewares/ST/STM32_USB_Host_Library/Core/Src/usbh_ctlreq.c ****   */
 463:Middlewares/ST/STM32_USB_Host_Library/Core/Src/usbh_ctlreq.c **** static void  USBH_ParseEPDesc(USBH_EpDescTypeDef  *ep_descriptor,
 464:Middlewares/ST/STM32_USB_Host_Library/Core/Src/usbh_ctlreq.c ****                               uint8_t *buf)
 465:Middlewares/ST/STM32_USB_Host_Library/Core/Src/usbh_ctlreq.c **** {
 180              		.loc 1 465 1 is_stmt 1 view -0
 181              		.cfi_startproc
 182              		@ args = 0, pretend = 0, frame = 0
 183              		@ frame_needed = 0, uses_anonymous_args = 0
 184              		@ link register save eliminated.
 466:Middlewares/ST/STM32_USB_Host_Library/Core/Src/usbh_ctlreq.c ****   ep_descriptor->bLength          = *(uint8_t *)(buf + 0);
 185              		.loc 1 466 3 view .LVU60
 186              		.loc 1 466 37 is_stmt 0 view .LVU61
 187 0000 0B78     		ldrb	r3, [r1]	@ zero_extendqisi2
 188              		.loc 1 466 35 view .LVU62
 189 0002 0370     		strb	r3, [r0]
 467:Middlewares/ST/STM32_USB_Host_Library/Core/Src/usbh_ctlreq.c ****   ep_descriptor->bDescriptorType  = *(uint8_t *)(buf + 1);
 190              		.loc 1 467 3 is_stmt 1 view .LVU63
 191              		.loc 1 467 35 is_stmt 0 view .LVU64
 192 0004 4B78     		ldrb	r3, [r1, #1]	@ zero_extendqisi2
 193 0006 4370     		strb	r3, [r0, #1]
 468:Middlewares/ST/STM32_USB_Host_Library/Core/Src/usbh_ctlreq.c ****   ep_descriptor->bEndpointAddress = *(uint8_t *)(buf + 2);
 194              		.loc 1 468 3 is_stmt 1 view .LVU65
 195              		.loc 1 468 35 is_stmt 0 view .LVU66
 196 0008 8B78     		ldrb	r3, [r1, #2]	@ zero_extendqisi2
 197 000a 8370     		strb	r3, [r0, #2]
 469:Middlewares/ST/STM32_USB_Host_Library/Core/Src/usbh_ctlreq.c ****   ep_descriptor->bmAttributes     = *(uint8_t *)(buf + 3);
 198              		.loc 1 469 3 is_stmt 1 view .LVU67
 199              		.loc 1 469 35 is_stmt 0 view .LVU68
 200 000c CB78     		ldrb	r3, [r1, #3]	@ zero_extendqisi2
 201 000e C370     		strb	r3, [r0, #3]
 470:Middlewares/ST/STM32_USB_Host_Library/Core/Src/usbh_ctlreq.c ****   ep_descriptor->wMaxPacketSize   = LE16(buf + 4);
 202              		.loc 1 470 3 is_stmt 1 view .LVU69
 203              		.loc 1 470 37 is_stmt 0 view .LVU70
 204 0010 0B79     		ldrb	r3, [r1, #4]	@ zero_extendqisi2
 205 0012 4A79     		ldrb	r2, [r1, #5]	@ zero_extendqisi2
 206 0014 43EA0223 		orr	r3, r3, r2, lsl #8
 207              		.loc 1 470 35 view .LVU71
 208 0018 8380     		strh	r3, [r0, #4]	@ movhi
 471:Middlewares/ST/STM32_USB_Host_Library/Core/Src/usbh_ctlreq.c ****   ep_descriptor->bInterval        = *(uint8_t *)(buf + 6);
 209              		.loc 1 471 3 is_stmt 1 view .LVU72
 210              		.loc 1 471 35 is_stmt 0 view .LVU73
 211 001a 8B79     		ldrb	r3, [r1, #6]	@ zero_extendqisi2
 212 001c 8371     		strb	r3, [r0, #6]
 472:Middlewares/ST/STM32_USB_Host_Library/Core/Src/usbh_ctlreq.c **** }
 213              		.loc 1 472 1 view .LVU74
 214 001e 7047     		bx	lr
 215              		.cfi_endproc
 216              	.LFE145:
 218              		.section	.text.USBH_ParseStringDesc,"ax",%progbits
ARM GAS  C:\Users\Acer\AppData\Local\Temp\cc74HznB.s 			page 13


 219              		.align	1
 220              		.syntax unified
 221              		.thumb
 222              		.thumb_func
 224              	USBH_ParseStringDesc:
 225              	.LVL4:
 226              	.LFB146:
 473:Middlewares/ST/STM32_USB_Host_Library/Core/Src/usbh_ctlreq.c **** 
 474:Middlewares/ST/STM32_USB_Host_Library/Core/Src/usbh_ctlreq.c **** 
 475:Middlewares/ST/STM32_USB_Host_Library/Core/Src/usbh_ctlreq.c **** /**
 476:Middlewares/ST/STM32_USB_Host_Library/Core/Src/usbh_ctlreq.c ****   * @brief  USBH_ParseStringDesc
 477:Middlewares/ST/STM32_USB_Host_Library/Core/Src/usbh_ctlreq.c ****   *         This function Parses the string descriptor
 478:Middlewares/ST/STM32_USB_Host_Library/Core/Src/usbh_ctlreq.c ****   * @param  psrc: Source pointer containing the descriptor data
 479:Middlewares/ST/STM32_USB_Host_Library/Core/Src/usbh_ctlreq.c ****   * @param  pdest: Destination address pointer
 480:Middlewares/ST/STM32_USB_Host_Library/Core/Src/usbh_ctlreq.c ****   * @param  length: Length of the descriptor
 481:Middlewares/ST/STM32_USB_Host_Library/Core/Src/usbh_ctlreq.c ****   * @retval None
 482:Middlewares/ST/STM32_USB_Host_Library/Core/Src/usbh_ctlreq.c ****   */
 483:Middlewares/ST/STM32_USB_Host_Library/Core/Src/usbh_ctlreq.c **** static void USBH_ParseStringDesc(uint8_t *psrc, uint8_t *pdest, uint16_t length)
 484:Middlewares/ST/STM32_USB_Host_Library/Core/Src/usbh_ctlreq.c **** {
 227              		.loc 1 484 1 is_stmt 1 view -0
 228              		.cfi_startproc
 229              		@ args = 0, pretend = 0, frame = 0
 230              		@ frame_needed = 0, uses_anonymous_args = 0
 231              		@ link register save eliminated.
 485:Middlewares/ST/STM32_USB_Host_Library/Core/Src/usbh_ctlreq.c ****   uint16_t strlength;
 232              		.loc 1 485 3 view .LVU76
 486:Middlewares/ST/STM32_USB_Host_Library/Core/Src/usbh_ctlreq.c ****   uint16_t idx;
 233              		.loc 1 486 3 view .LVU77
 487:Middlewares/ST/STM32_USB_Host_Library/Core/Src/usbh_ctlreq.c **** 
 488:Middlewares/ST/STM32_USB_Host_Library/Core/Src/usbh_ctlreq.c ****   /* The UNICODE string descriptor is not NULL-terminated. The string length is
 489:Middlewares/ST/STM32_USB_Host_Library/Core/Src/usbh_ctlreq.c ****   computed by substracting two from the value of the first byte of the descriptor.
 490:Middlewares/ST/STM32_USB_Host_Library/Core/Src/usbh_ctlreq.c ****   */
 491:Middlewares/ST/STM32_USB_Host_Library/Core/Src/usbh_ctlreq.c **** 
 492:Middlewares/ST/STM32_USB_Host_Library/Core/Src/usbh_ctlreq.c ****   /* Check which is lower size, the Size of string or the length of bytes read
 493:Middlewares/ST/STM32_USB_Host_Library/Core/Src/usbh_ctlreq.c ****   from the device */
 494:Middlewares/ST/STM32_USB_Host_Library/Core/Src/usbh_ctlreq.c **** 
 495:Middlewares/ST/STM32_USB_Host_Library/Core/Src/usbh_ctlreq.c ****   if (psrc[1] == USB_DESC_TYPE_STRING)
 234              		.loc 1 495 3 view .LVU78
 235              		.loc 1 495 11 is_stmt 0 view .LVU79
 236 0000 4378     		ldrb	r3, [r0, #1]	@ zero_extendqisi2
 237              		.loc 1 495 6 view .LVU80
 238 0002 032B     		cmp	r3, #3
 239 0004 00D0     		beq	.L9
 240              	.LVL5:
 241              	.L5:
 496:Middlewares/ST/STM32_USB_Host_Library/Core/Src/usbh_ctlreq.c ****   {
 497:Middlewares/ST/STM32_USB_Host_Library/Core/Src/usbh_ctlreq.c ****     /* Make sure the Descriptor is String Type */
 498:Middlewares/ST/STM32_USB_Host_Library/Core/Src/usbh_ctlreq.c **** 
 499:Middlewares/ST/STM32_USB_Host_Library/Core/Src/usbh_ctlreq.c ****     /* psrc[0] contains Size of Descriptor, subtract 2 to get the length of string */
 500:Middlewares/ST/STM32_USB_Host_Library/Core/Src/usbh_ctlreq.c ****     strlength = ((((uint16_t)psrc[0] - 2U) <= length) ? ((uint16_t)psrc[0] - 2U) : length);
 501:Middlewares/ST/STM32_USB_Host_Library/Core/Src/usbh_ctlreq.c **** 
 502:Middlewares/ST/STM32_USB_Host_Library/Core/Src/usbh_ctlreq.c ****     /* Adjust the offset ignoring the String Len and Descriptor type */
 503:Middlewares/ST/STM32_USB_Host_Library/Core/Src/usbh_ctlreq.c ****     psrc += 2U;
 504:Middlewares/ST/STM32_USB_Host_Library/Core/Src/usbh_ctlreq.c **** 
 505:Middlewares/ST/STM32_USB_Host_Library/Core/Src/usbh_ctlreq.c ****     for (idx = 0U; idx < strlength; idx += 2U)
 506:Middlewares/ST/STM32_USB_Host_Library/Core/Src/usbh_ctlreq.c ****     {
 507:Middlewares/ST/STM32_USB_Host_Library/Core/Src/usbh_ctlreq.c ****       /* Copy Only the string and ignore the UNICODE ID, hence add the src */
ARM GAS  C:\Users\Acer\AppData\Local\Temp\cc74HznB.s 			page 14


 508:Middlewares/ST/STM32_USB_Host_Library/Core/Src/usbh_ctlreq.c ****       *pdest =  psrc[idx];
 509:Middlewares/ST/STM32_USB_Host_Library/Core/Src/usbh_ctlreq.c ****       pdest++;
 510:Middlewares/ST/STM32_USB_Host_Library/Core/Src/usbh_ctlreq.c ****     }
 511:Middlewares/ST/STM32_USB_Host_Library/Core/Src/usbh_ctlreq.c ****     *pdest = 0U; /* mark end of string */
 512:Middlewares/ST/STM32_USB_Host_Library/Core/Src/usbh_ctlreq.c ****   }
 513:Middlewares/ST/STM32_USB_Host_Library/Core/Src/usbh_ctlreq.c **** }
 242              		.loc 1 513 1 view .LVU81
 243 0006 7047     		bx	lr
 244              	.LVL6:
 245              	.L9:
 500:Middlewares/ST/STM32_USB_Host_Library/Core/Src/usbh_ctlreq.c **** 
 246              		.loc 1 500 5 is_stmt 1 view .LVU82
 500:Middlewares/ST/STM32_USB_Host_Library/Core/Src/usbh_ctlreq.c **** 
 247              		.loc 1 500 34 is_stmt 0 view .LVU83
 248 0008 0378     		ldrb	r3, [r0]	@ zero_extendqisi2
 500:Middlewares/ST/STM32_USB_Host_Library/Core/Src/usbh_ctlreq.c **** 
 249              		.loc 1 500 38 view .LVU84
 250 000a 023B     		subs	r3, r3, #2
 500:Middlewares/ST/STM32_USB_Host_Library/Core/Src/usbh_ctlreq.c **** 
 251              		.loc 1 500 82 view .LVU85
 252 000c 9A42     		cmp	r2, r3
 253 000e 28BF     		it	cs
 254 0010 1A46     		movcs	r2, r3
 255              	.LVL7:
 500:Middlewares/ST/STM32_USB_Host_Library/Core/Src/usbh_ctlreq.c **** 
 256              		.loc 1 500 15 view .LVU86
 257 0012 92B2     		uxth	r2, r2
 258              	.LVL8:
 503:Middlewares/ST/STM32_USB_Host_Library/Core/Src/usbh_ctlreq.c **** 
 259              		.loc 1 503 5 is_stmt 1 view .LVU87
 505:Middlewares/ST/STM32_USB_Host_Library/Core/Src/usbh_ctlreq.c ****     {
 260              		.loc 1 505 5 view .LVU88
 505:Middlewares/ST/STM32_USB_Host_Library/Core/Src/usbh_ctlreq.c ****     {
 261              		.loc 1 505 14 is_stmt 0 view .LVU89
 262 0014 0023     		movs	r3, #0
 505:Middlewares/ST/STM32_USB_Host_Library/Core/Src/usbh_ctlreq.c ****     {
 263              		.loc 1 505 5 view .LVU90
 264 0016 07E0     		b	.L7
 265              	.LVL9:
 266              	.L8:
 508:Middlewares/ST/STM32_USB_Host_Library/Core/Src/usbh_ctlreq.c ****       pdest++;
 267              		.loc 1 508 7 is_stmt 1 discriminator 3 view .LVU91
 508:Middlewares/ST/STM32_USB_Host_Library/Core/Src/usbh_ctlreq.c ****       pdest++;
 268              		.loc 1 508 21 is_stmt 0 discriminator 3 view .LVU92
 269 0018 00EB030C 		add	ip, r0, r3
 270 001c 9CF802C0 		ldrb	ip, [ip, #2]	@ zero_extendqisi2
 508:Middlewares/ST/STM32_USB_Host_Library/Core/Src/usbh_ctlreq.c ****       pdest++;
 271              		.loc 1 508 14 discriminator 3 view .LVU93
 272 0020 01F801CB 		strb	ip, [r1], #1
 273              	.LVL10:
 509:Middlewares/ST/STM32_USB_Host_Library/Core/Src/usbh_ctlreq.c ****     }
 274              		.loc 1 509 7 is_stmt 1 discriminator 3 view .LVU94
 505:Middlewares/ST/STM32_USB_Host_Library/Core/Src/usbh_ctlreq.c ****     {
 275              		.loc 1 505 37 discriminator 3 view .LVU95
 505:Middlewares/ST/STM32_USB_Host_Library/Core/Src/usbh_ctlreq.c ****     {
 276              		.loc 1 505 41 is_stmt 0 discriminator 3 view .LVU96
 277 0024 0233     		adds	r3, r3, #2
ARM GAS  C:\Users\Acer\AppData\Local\Temp\cc74HznB.s 			page 15


 278              	.LVL11:
 505:Middlewares/ST/STM32_USB_Host_Library/Core/Src/usbh_ctlreq.c ****     {
 279              		.loc 1 505 41 discriminator 3 view .LVU97
 280 0026 9BB2     		uxth	r3, r3
 281              	.LVL12:
 282              	.L7:
 505:Middlewares/ST/STM32_USB_Host_Library/Core/Src/usbh_ctlreq.c ****     {
 283              		.loc 1 505 20 is_stmt 1 discriminator 1 view .LVU98
 505:Middlewares/ST/STM32_USB_Host_Library/Core/Src/usbh_ctlreq.c ****     {
 284              		.loc 1 505 5 is_stmt 0 discriminator 1 view .LVU99
 285 0028 9342     		cmp	r3, r2
 286 002a F5D3     		bcc	.L8
 511:Middlewares/ST/STM32_USB_Host_Library/Core/Src/usbh_ctlreq.c ****   }
 287              		.loc 1 511 5 is_stmt 1 view .LVU100
 511:Middlewares/ST/STM32_USB_Host_Library/Core/Src/usbh_ctlreq.c ****   }
 288              		.loc 1 511 12 is_stmt 0 view .LVU101
 289 002c 0023     		movs	r3, #0
 290              	.LVL13:
 511:Middlewares/ST/STM32_USB_Host_Library/Core/Src/usbh_ctlreq.c ****   }
 291              		.loc 1 511 12 view .LVU102
 292 002e 0B70     		strb	r3, [r1]
 293              		.loc 1 513 1 view .LVU103
 294 0030 E9E7     		b	.L5
 295              		.cfi_endproc
 296              	.LFE146:
 298              		.section	.text.USBH_HandleControl,"ax",%progbits
 299              		.align	1
 300              		.syntax unified
 301              		.thumb
 302              		.thumb_func
 304              	USBH_HandleControl:
 305              	.LVL14:
 306              	.LFB149:
 514:Middlewares/ST/STM32_USB_Host_Library/Core/Src/usbh_ctlreq.c **** 
 515:Middlewares/ST/STM32_USB_Host_Library/Core/Src/usbh_ctlreq.c **** 
 516:Middlewares/ST/STM32_USB_Host_Library/Core/Src/usbh_ctlreq.c **** /**
 517:Middlewares/ST/STM32_USB_Host_Library/Core/Src/usbh_ctlreq.c ****   * @brief  USBH_GetNextDesc
 518:Middlewares/ST/STM32_USB_Host_Library/Core/Src/usbh_ctlreq.c ****   *         This function return the next descriptor header
 519:Middlewares/ST/STM32_USB_Host_Library/Core/Src/usbh_ctlreq.c ****   * @param  buf: Buffer where the cfg descriptor is available
 520:Middlewares/ST/STM32_USB_Host_Library/Core/Src/usbh_ctlreq.c ****   * @param  ptr: data pointer inside the cfg descriptor
 521:Middlewares/ST/STM32_USB_Host_Library/Core/Src/usbh_ctlreq.c ****   * @retval next header
 522:Middlewares/ST/STM32_USB_Host_Library/Core/Src/usbh_ctlreq.c ****   */
 523:Middlewares/ST/STM32_USB_Host_Library/Core/Src/usbh_ctlreq.c **** USBH_DescHeader_t  *USBH_GetNextDesc(uint8_t   *pbuf, uint16_t  *ptr)
 524:Middlewares/ST/STM32_USB_Host_Library/Core/Src/usbh_ctlreq.c **** {
 525:Middlewares/ST/STM32_USB_Host_Library/Core/Src/usbh_ctlreq.c ****   USBH_DescHeader_t  *pnext;
 526:Middlewares/ST/STM32_USB_Host_Library/Core/Src/usbh_ctlreq.c **** 
 527:Middlewares/ST/STM32_USB_Host_Library/Core/Src/usbh_ctlreq.c ****   *ptr += ((USBH_DescHeader_t *)(void *)pbuf)->bLength;
 528:Middlewares/ST/STM32_USB_Host_Library/Core/Src/usbh_ctlreq.c ****   pnext = (USBH_DescHeader_t *)(void *)((uint8_t *)(void *)pbuf + \
 529:Middlewares/ST/STM32_USB_Host_Library/Core/Src/usbh_ctlreq.c ****                                         ((USBH_DescHeader_t *)(void *)pbuf)->bLength);
 530:Middlewares/ST/STM32_USB_Host_Library/Core/Src/usbh_ctlreq.c **** 
 531:Middlewares/ST/STM32_USB_Host_Library/Core/Src/usbh_ctlreq.c ****   return (pnext);
 532:Middlewares/ST/STM32_USB_Host_Library/Core/Src/usbh_ctlreq.c **** }
 533:Middlewares/ST/STM32_USB_Host_Library/Core/Src/usbh_ctlreq.c **** 
 534:Middlewares/ST/STM32_USB_Host_Library/Core/Src/usbh_ctlreq.c **** 
 535:Middlewares/ST/STM32_USB_Host_Library/Core/Src/usbh_ctlreq.c **** /**
 536:Middlewares/ST/STM32_USB_Host_Library/Core/Src/usbh_ctlreq.c ****   * @brief  USBH_CtlReq
 537:Middlewares/ST/STM32_USB_Host_Library/Core/Src/usbh_ctlreq.c ****   *         USBH_CtlReq sends a control request and provide the status after
ARM GAS  C:\Users\Acer\AppData\Local\Temp\cc74HznB.s 			page 16


 538:Middlewares/ST/STM32_USB_Host_Library/Core/Src/usbh_ctlreq.c ****   *            completion of the request
 539:Middlewares/ST/STM32_USB_Host_Library/Core/Src/usbh_ctlreq.c ****   * @param  phost: Host Handle
 540:Middlewares/ST/STM32_USB_Host_Library/Core/Src/usbh_ctlreq.c ****   * @param  req: Setup Request Structure
 541:Middlewares/ST/STM32_USB_Host_Library/Core/Src/usbh_ctlreq.c ****   * @param  buff: data buffer address to store the response
 542:Middlewares/ST/STM32_USB_Host_Library/Core/Src/usbh_ctlreq.c ****   * @param  length: length of the response
 543:Middlewares/ST/STM32_USB_Host_Library/Core/Src/usbh_ctlreq.c ****   * @retval USBH Status
 544:Middlewares/ST/STM32_USB_Host_Library/Core/Src/usbh_ctlreq.c ****   */
 545:Middlewares/ST/STM32_USB_Host_Library/Core/Src/usbh_ctlreq.c **** USBH_StatusTypeDef USBH_CtlReq(USBH_HandleTypeDef *phost, uint8_t *buff,
 546:Middlewares/ST/STM32_USB_Host_Library/Core/Src/usbh_ctlreq.c ****                                uint16_t length)
 547:Middlewares/ST/STM32_USB_Host_Library/Core/Src/usbh_ctlreq.c **** {
 548:Middlewares/ST/STM32_USB_Host_Library/Core/Src/usbh_ctlreq.c ****   USBH_StatusTypeDef status;
 549:Middlewares/ST/STM32_USB_Host_Library/Core/Src/usbh_ctlreq.c ****   status = USBH_BUSY;
 550:Middlewares/ST/STM32_USB_Host_Library/Core/Src/usbh_ctlreq.c **** 
 551:Middlewares/ST/STM32_USB_Host_Library/Core/Src/usbh_ctlreq.c ****   switch (phost->RequestState)
 552:Middlewares/ST/STM32_USB_Host_Library/Core/Src/usbh_ctlreq.c ****   {
 553:Middlewares/ST/STM32_USB_Host_Library/Core/Src/usbh_ctlreq.c ****     case CMD_SEND:
 554:Middlewares/ST/STM32_USB_Host_Library/Core/Src/usbh_ctlreq.c ****       /* Start a SETUP transfer */
 555:Middlewares/ST/STM32_USB_Host_Library/Core/Src/usbh_ctlreq.c ****       phost->Control.buff = buff;
 556:Middlewares/ST/STM32_USB_Host_Library/Core/Src/usbh_ctlreq.c ****       phost->Control.length = length;
 557:Middlewares/ST/STM32_USB_Host_Library/Core/Src/usbh_ctlreq.c ****       phost->Control.state = CTRL_SETUP;
 558:Middlewares/ST/STM32_USB_Host_Library/Core/Src/usbh_ctlreq.c ****       phost->RequestState = CMD_WAIT;
 559:Middlewares/ST/STM32_USB_Host_Library/Core/Src/usbh_ctlreq.c ****       status = USBH_BUSY;
 560:Middlewares/ST/STM32_USB_Host_Library/Core/Src/usbh_ctlreq.c **** 
 561:Middlewares/ST/STM32_USB_Host_Library/Core/Src/usbh_ctlreq.c **** #if (USBH_USE_OS == 1U)
 562:Middlewares/ST/STM32_USB_Host_Library/Core/Src/usbh_ctlreq.c ****       phost->os_msg = (uint32_t)USBH_CONTROL_EVENT;
 563:Middlewares/ST/STM32_USB_Host_Library/Core/Src/usbh_ctlreq.c **** #if (osCMSIS < 0x20000U)
 564:Middlewares/ST/STM32_USB_Host_Library/Core/Src/usbh_ctlreq.c ****       (void)osMessagePut(phost->os_event, phost->os_msg, 0U);
 565:Middlewares/ST/STM32_USB_Host_Library/Core/Src/usbh_ctlreq.c **** #else
 566:Middlewares/ST/STM32_USB_Host_Library/Core/Src/usbh_ctlreq.c ****       (void)osMessageQueuePut(phost->os_event, &phost->os_msg, 0U, NULL);
 567:Middlewares/ST/STM32_USB_Host_Library/Core/Src/usbh_ctlreq.c **** #endif
 568:Middlewares/ST/STM32_USB_Host_Library/Core/Src/usbh_ctlreq.c **** #endif
 569:Middlewares/ST/STM32_USB_Host_Library/Core/Src/usbh_ctlreq.c ****       break;
 570:Middlewares/ST/STM32_USB_Host_Library/Core/Src/usbh_ctlreq.c **** 
 571:Middlewares/ST/STM32_USB_Host_Library/Core/Src/usbh_ctlreq.c ****     case CMD_WAIT:
 572:Middlewares/ST/STM32_USB_Host_Library/Core/Src/usbh_ctlreq.c ****       status = USBH_HandleControl(phost);
 573:Middlewares/ST/STM32_USB_Host_Library/Core/Src/usbh_ctlreq.c ****       if ((status == USBH_OK) || (status == USBH_NOT_SUPPORTED))
 574:Middlewares/ST/STM32_USB_Host_Library/Core/Src/usbh_ctlreq.c ****       {
 575:Middlewares/ST/STM32_USB_Host_Library/Core/Src/usbh_ctlreq.c ****         /* Transaction completed, move control state to idle */
 576:Middlewares/ST/STM32_USB_Host_Library/Core/Src/usbh_ctlreq.c ****         phost->RequestState = CMD_SEND;
 577:Middlewares/ST/STM32_USB_Host_Library/Core/Src/usbh_ctlreq.c ****         phost->Control.state = CTRL_IDLE;
 578:Middlewares/ST/STM32_USB_Host_Library/Core/Src/usbh_ctlreq.c ****       }
 579:Middlewares/ST/STM32_USB_Host_Library/Core/Src/usbh_ctlreq.c ****       else if (status == USBH_FAIL)
 580:Middlewares/ST/STM32_USB_Host_Library/Core/Src/usbh_ctlreq.c ****       {
 581:Middlewares/ST/STM32_USB_Host_Library/Core/Src/usbh_ctlreq.c ****         /* Failure Mode */
 582:Middlewares/ST/STM32_USB_Host_Library/Core/Src/usbh_ctlreq.c ****         phost->RequestState = CMD_SEND;
 583:Middlewares/ST/STM32_USB_Host_Library/Core/Src/usbh_ctlreq.c ****       }
 584:Middlewares/ST/STM32_USB_Host_Library/Core/Src/usbh_ctlreq.c ****       else
 585:Middlewares/ST/STM32_USB_Host_Library/Core/Src/usbh_ctlreq.c ****       {
 586:Middlewares/ST/STM32_USB_Host_Library/Core/Src/usbh_ctlreq.c ****         /* .. */
 587:Middlewares/ST/STM32_USB_Host_Library/Core/Src/usbh_ctlreq.c ****       }
 588:Middlewares/ST/STM32_USB_Host_Library/Core/Src/usbh_ctlreq.c **** #if (USBH_USE_OS == 1U)
 589:Middlewares/ST/STM32_USB_Host_Library/Core/Src/usbh_ctlreq.c ****       phost->os_msg = (uint32_t)USBH_CONTROL_EVENT;
 590:Middlewares/ST/STM32_USB_Host_Library/Core/Src/usbh_ctlreq.c **** #if (osCMSIS < 0x20000U)
 591:Middlewares/ST/STM32_USB_Host_Library/Core/Src/usbh_ctlreq.c ****       (void)osMessagePut(phost->os_event, phost->os_msg, 0U);
 592:Middlewares/ST/STM32_USB_Host_Library/Core/Src/usbh_ctlreq.c **** #else
 593:Middlewares/ST/STM32_USB_Host_Library/Core/Src/usbh_ctlreq.c ****       (void)osMessageQueuePut(phost->os_event, &phost->os_msg, 0U, NULL);
 594:Middlewares/ST/STM32_USB_Host_Library/Core/Src/usbh_ctlreq.c **** #endif
ARM GAS  C:\Users\Acer\AppData\Local\Temp\cc74HznB.s 			page 17


 595:Middlewares/ST/STM32_USB_Host_Library/Core/Src/usbh_ctlreq.c **** #endif
 596:Middlewares/ST/STM32_USB_Host_Library/Core/Src/usbh_ctlreq.c ****       break;
 597:Middlewares/ST/STM32_USB_Host_Library/Core/Src/usbh_ctlreq.c **** 
 598:Middlewares/ST/STM32_USB_Host_Library/Core/Src/usbh_ctlreq.c ****     default:
 599:Middlewares/ST/STM32_USB_Host_Library/Core/Src/usbh_ctlreq.c ****       break;
 600:Middlewares/ST/STM32_USB_Host_Library/Core/Src/usbh_ctlreq.c ****   }
 601:Middlewares/ST/STM32_USB_Host_Library/Core/Src/usbh_ctlreq.c ****   return status;
 602:Middlewares/ST/STM32_USB_Host_Library/Core/Src/usbh_ctlreq.c **** }
 603:Middlewares/ST/STM32_USB_Host_Library/Core/Src/usbh_ctlreq.c **** 
 604:Middlewares/ST/STM32_USB_Host_Library/Core/Src/usbh_ctlreq.c **** 
 605:Middlewares/ST/STM32_USB_Host_Library/Core/Src/usbh_ctlreq.c **** /**
 606:Middlewares/ST/STM32_USB_Host_Library/Core/Src/usbh_ctlreq.c ****   * @brief  USBH_HandleControl
 607:Middlewares/ST/STM32_USB_Host_Library/Core/Src/usbh_ctlreq.c ****   *         Handles the USB control transfer state machine
 608:Middlewares/ST/STM32_USB_Host_Library/Core/Src/usbh_ctlreq.c ****   * @param  phost: Host Handle
 609:Middlewares/ST/STM32_USB_Host_Library/Core/Src/usbh_ctlreq.c ****   * @retval USBH Status
 610:Middlewares/ST/STM32_USB_Host_Library/Core/Src/usbh_ctlreq.c ****   */
 611:Middlewares/ST/STM32_USB_Host_Library/Core/Src/usbh_ctlreq.c **** static USBH_StatusTypeDef USBH_HandleControl(USBH_HandleTypeDef *phost)
 612:Middlewares/ST/STM32_USB_Host_Library/Core/Src/usbh_ctlreq.c **** {
 307              		.loc 1 612 1 is_stmt 1 view -0
 308              		.cfi_startproc
 309              		@ args = 0, pretend = 0, frame = 0
 310              		@ frame_needed = 0, uses_anonymous_args = 0
 311              		.loc 1 612 1 is_stmt 0 view .LVU105
 312 0000 30B5     		push	{r4, r5, lr}
 313              	.LCFI0:
 314              		.cfi_def_cfa_offset 12
 315              		.cfi_offset 4, -12
 316              		.cfi_offset 5, -8
 317              		.cfi_offset 14, -4
 318 0002 83B0     		sub	sp, sp, #12
 319              	.LCFI1:
 320              		.cfi_def_cfa_offset 24
 321 0004 0446     		mov	r4, r0
 613:Middlewares/ST/STM32_USB_Host_Library/Core/Src/usbh_ctlreq.c ****   uint8_t direction;
 322              		.loc 1 613 3 is_stmt 1 view .LVU106
 614:Middlewares/ST/STM32_USB_Host_Library/Core/Src/usbh_ctlreq.c ****   USBH_StatusTypeDef status = USBH_BUSY;
 323              		.loc 1 614 3 view .LVU107
 324              	.LVL15:
 615:Middlewares/ST/STM32_USB_Host_Library/Core/Src/usbh_ctlreq.c ****   USBH_URBStateTypeDef URB_Status = USBH_URB_IDLE;
 325              		.loc 1 615 3 view .LVU108
 616:Middlewares/ST/STM32_USB_Host_Library/Core/Src/usbh_ctlreq.c **** 
 617:Middlewares/ST/STM32_USB_Host_Library/Core/Src/usbh_ctlreq.c ****   switch (phost->Control.state)
 326              		.loc 1 617 3 view .LVU109
 327              		.loc 1 617 25 is_stmt 0 view .LVU110
 328 0006 057E     		ldrb	r5, [r0, #24]	@ zero_extendqisi2
 329              		.loc 1 617 3 view .LVU111
 330 0008 6B1E     		subs	r3, r5, #1
 331 000a 0A2B     		cmp	r3, #10
 332 000c 00F2DE80 		bhi	.L38
 333 0010 DFE803F0 		tbb	[pc, r3]
 334              	.L13:
 335 0014 06       		.byte	(.L23-.L13)/2
 336 0015 10       		.byte	(.L22-.L13)/2
 337 0016 35       		.byte	(.L21-.L13)/2
 338 0017 41       		.byte	(.L20-.L13)/2
 339 0018 54       		.byte	(.L19-.L13)/2
 340 0019 61       		.byte	(.L18-.L13)/2
ARM GAS  C:\Users\Acer\AppData\Local\Temp\cc74HznB.s 			page 18


 341 001a 7E       		.byte	(.L17-.L13)/2
 342 001b 8A       		.byte	(.L16-.L13)/2
 343 001c 9D       		.byte	(.L15-.L13)/2
 344 001d AA       		.byte	(.L14-.L13)/2
 345 001e C1       		.byte	(.L12-.L13)/2
 346 001f 00       		.p2align 1
 347              	.L23:
 618:Middlewares/ST/STM32_USB_Host_Library/Core/Src/usbh_ctlreq.c ****   {
 619:Middlewares/ST/STM32_USB_Host_Library/Core/Src/usbh_ctlreq.c ****     case CTRL_SETUP:
 620:Middlewares/ST/STM32_USB_Host_Library/Core/Src/usbh_ctlreq.c ****       /* send a SETUP packet */
 621:Middlewares/ST/STM32_USB_Host_Library/Core/Src/usbh_ctlreq.c ****       USBH_CtlSendSetup(phost, (uint8_t *)(void *)phost->Control.setup.d8,
 348              		.loc 1 621 7 is_stmt 1 view .LVU112
 349 0020 4279     		ldrb	r2, [r0, #5]	@ zero_extendqisi2
 350 0022 00F11001 		add	r1, r0, #16
 351 0026 FFF7FEFF 		bl	USBH_CtlSendSetup
 352              	.LVL16:
 622:Middlewares/ST/STM32_USB_Host_Library/Core/Src/usbh_ctlreq.c ****                         phost->Control.pipe_out);
 623:Middlewares/ST/STM32_USB_Host_Library/Core/Src/usbh_ctlreq.c **** 
 624:Middlewares/ST/STM32_USB_Host_Library/Core/Src/usbh_ctlreq.c ****       phost->Control.state = CTRL_SETUP_WAIT;
 353              		.loc 1 624 7 view .LVU113
 354              		.loc 1 624 28 is_stmt 0 view .LVU114
 355 002a 0223     		movs	r3, #2
 356 002c 2376     		strb	r3, [r4, #24]
 625:Middlewares/ST/STM32_USB_Host_Library/Core/Src/usbh_ctlreq.c ****       break;
 357              		.loc 1 625 7 is_stmt 1 view .LVU115
 358              	.LVL17:
 359              	.L11:
 626:Middlewares/ST/STM32_USB_Host_Library/Core/Src/usbh_ctlreq.c **** 
 627:Middlewares/ST/STM32_USB_Host_Library/Core/Src/usbh_ctlreq.c ****     case CTRL_SETUP_WAIT:
 628:Middlewares/ST/STM32_USB_Host_Library/Core/Src/usbh_ctlreq.c **** 
 629:Middlewares/ST/STM32_USB_Host_Library/Core/Src/usbh_ctlreq.c ****       URB_Status = USBH_LL_GetURBState(phost, phost->Control.pipe_out);
 630:Middlewares/ST/STM32_USB_Host_Library/Core/Src/usbh_ctlreq.c ****       /* case SETUP packet sent successfully */
 631:Middlewares/ST/STM32_USB_Host_Library/Core/Src/usbh_ctlreq.c ****       if (URB_Status == USBH_URB_DONE)
 632:Middlewares/ST/STM32_USB_Host_Library/Core/Src/usbh_ctlreq.c ****       {
 633:Middlewares/ST/STM32_USB_Host_Library/Core/Src/usbh_ctlreq.c ****         direction = (phost->Control.setup.b.bmRequestType & USB_REQ_DIR_MASK);
 634:Middlewares/ST/STM32_USB_Host_Library/Core/Src/usbh_ctlreq.c **** 
 635:Middlewares/ST/STM32_USB_Host_Library/Core/Src/usbh_ctlreq.c ****         /* check if there is a data stage */
 636:Middlewares/ST/STM32_USB_Host_Library/Core/Src/usbh_ctlreq.c ****         if (phost->Control.setup.b.wLength.w != 0U)
 637:Middlewares/ST/STM32_USB_Host_Library/Core/Src/usbh_ctlreq.c ****         {
 638:Middlewares/ST/STM32_USB_Host_Library/Core/Src/usbh_ctlreq.c ****           if (direction == USB_D2H)
 639:Middlewares/ST/STM32_USB_Host_Library/Core/Src/usbh_ctlreq.c ****           {
 640:Middlewares/ST/STM32_USB_Host_Library/Core/Src/usbh_ctlreq.c ****             /* Data Direction is IN */
 641:Middlewares/ST/STM32_USB_Host_Library/Core/Src/usbh_ctlreq.c ****             phost->Control.state = CTRL_DATA_IN;
 642:Middlewares/ST/STM32_USB_Host_Library/Core/Src/usbh_ctlreq.c ****           }
 643:Middlewares/ST/STM32_USB_Host_Library/Core/Src/usbh_ctlreq.c ****           else
 644:Middlewares/ST/STM32_USB_Host_Library/Core/Src/usbh_ctlreq.c ****           {
 645:Middlewares/ST/STM32_USB_Host_Library/Core/Src/usbh_ctlreq.c ****             /* Data Direction is OUT */
 646:Middlewares/ST/STM32_USB_Host_Library/Core/Src/usbh_ctlreq.c ****             phost->Control.state = CTRL_DATA_OUT;
 647:Middlewares/ST/STM32_USB_Host_Library/Core/Src/usbh_ctlreq.c ****           }
 648:Middlewares/ST/STM32_USB_Host_Library/Core/Src/usbh_ctlreq.c ****         }
 649:Middlewares/ST/STM32_USB_Host_Library/Core/Src/usbh_ctlreq.c ****         /* No DATA stage */
 650:Middlewares/ST/STM32_USB_Host_Library/Core/Src/usbh_ctlreq.c ****         else
 651:Middlewares/ST/STM32_USB_Host_Library/Core/Src/usbh_ctlreq.c ****         {
 652:Middlewares/ST/STM32_USB_Host_Library/Core/Src/usbh_ctlreq.c ****           /* If there is No Data Transfer Stage */
 653:Middlewares/ST/STM32_USB_Host_Library/Core/Src/usbh_ctlreq.c ****           if (direction == USB_D2H)
 654:Middlewares/ST/STM32_USB_Host_Library/Core/Src/usbh_ctlreq.c ****           {
 655:Middlewares/ST/STM32_USB_Host_Library/Core/Src/usbh_ctlreq.c ****             /* Data Direction is IN */
ARM GAS  C:\Users\Acer\AppData\Local\Temp\cc74HznB.s 			page 19


 656:Middlewares/ST/STM32_USB_Host_Library/Core/Src/usbh_ctlreq.c ****             phost->Control.state = CTRL_STATUS_OUT;
 657:Middlewares/ST/STM32_USB_Host_Library/Core/Src/usbh_ctlreq.c ****           }
 658:Middlewares/ST/STM32_USB_Host_Library/Core/Src/usbh_ctlreq.c ****           else
 659:Middlewares/ST/STM32_USB_Host_Library/Core/Src/usbh_ctlreq.c ****           {
 660:Middlewares/ST/STM32_USB_Host_Library/Core/Src/usbh_ctlreq.c ****             /* Data Direction is OUT */
 661:Middlewares/ST/STM32_USB_Host_Library/Core/Src/usbh_ctlreq.c ****             phost->Control.state = CTRL_STATUS_IN;
 662:Middlewares/ST/STM32_USB_Host_Library/Core/Src/usbh_ctlreq.c ****           }
 663:Middlewares/ST/STM32_USB_Host_Library/Core/Src/usbh_ctlreq.c ****         }
 664:Middlewares/ST/STM32_USB_Host_Library/Core/Src/usbh_ctlreq.c **** 
 665:Middlewares/ST/STM32_USB_Host_Library/Core/Src/usbh_ctlreq.c **** #if (USBH_USE_OS == 1U)
 666:Middlewares/ST/STM32_USB_Host_Library/Core/Src/usbh_ctlreq.c ****         phost->os_msg = (uint32_t)USBH_CONTROL_EVENT;
 667:Middlewares/ST/STM32_USB_Host_Library/Core/Src/usbh_ctlreq.c **** #if (osCMSIS < 0x20000U)
 668:Middlewares/ST/STM32_USB_Host_Library/Core/Src/usbh_ctlreq.c ****         (void)osMessagePut(phost->os_event, phost->os_msg, 0U);
 669:Middlewares/ST/STM32_USB_Host_Library/Core/Src/usbh_ctlreq.c **** #else
 670:Middlewares/ST/STM32_USB_Host_Library/Core/Src/usbh_ctlreq.c ****         (void)osMessageQueuePut(phost->os_event, &phost->os_msg, 0U, NULL);
 671:Middlewares/ST/STM32_USB_Host_Library/Core/Src/usbh_ctlreq.c **** #endif
 672:Middlewares/ST/STM32_USB_Host_Library/Core/Src/usbh_ctlreq.c **** #endif
 673:Middlewares/ST/STM32_USB_Host_Library/Core/Src/usbh_ctlreq.c ****       }
 674:Middlewares/ST/STM32_USB_Host_Library/Core/Src/usbh_ctlreq.c ****       else
 675:Middlewares/ST/STM32_USB_Host_Library/Core/Src/usbh_ctlreq.c ****       {
 676:Middlewares/ST/STM32_USB_Host_Library/Core/Src/usbh_ctlreq.c ****         if ((URB_Status == USBH_URB_ERROR) || (URB_Status == USBH_URB_NOTREADY))
 677:Middlewares/ST/STM32_USB_Host_Library/Core/Src/usbh_ctlreq.c ****         {
 678:Middlewares/ST/STM32_USB_Host_Library/Core/Src/usbh_ctlreq.c ****           phost->Control.state = CTRL_ERROR;
 679:Middlewares/ST/STM32_USB_Host_Library/Core/Src/usbh_ctlreq.c **** 
 680:Middlewares/ST/STM32_USB_Host_Library/Core/Src/usbh_ctlreq.c **** #if (USBH_USE_OS == 1U)
 681:Middlewares/ST/STM32_USB_Host_Library/Core/Src/usbh_ctlreq.c ****           phost->os_msg = (uint32_t)USBH_CONTROL_EVENT;
 682:Middlewares/ST/STM32_USB_Host_Library/Core/Src/usbh_ctlreq.c **** #if (osCMSIS < 0x20000U)
 683:Middlewares/ST/STM32_USB_Host_Library/Core/Src/usbh_ctlreq.c ****           (void)osMessagePut(phost->os_event, phost->os_msg, 0U);
 684:Middlewares/ST/STM32_USB_Host_Library/Core/Src/usbh_ctlreq.c **** #else
 685:Middlewares/ST/STM32_USB_Host_Library/Core/Src/usbh_ctlreq.c ****           (void)osMessageQueuePut(phost->os_event, &phost->os_msg, 0U, NULL);
 686:Middlewares/ST/STM32_USB_Host_Library/Core/Src/usbh_ctlreq.c **** #endif
 687:Middlewares/ST/STM32_USB_Host_Library/Core/Src/usbh_ctlreq.c **** #endif
 688:Middlewares/ST/STM32_USB_Host_Library/Core/Src/usbh_ctlreq.c ****         }
 689:Middlewares/ST/STM32_USB_Host_Library/Core/Src/usbh_ctlreq.c ****       }
 690:Middlewares/ST/STM32_USB_Host_Library/Core/Src/usbh_ctlreq.c ****       break;
 691:Middlewares/ST/STM32_USB_Host_Library/Core/Src/usbh_ctlreq.c **** 
 692:Middlewares/ST/STM32_USB_Host_Library/Core/Src/usbh_ctlreq.c ****     case CTRL_DATA_IN:
 693:Middlewares/ST/STM32_USB_Host_Library/Core/Src/usbh_ctlreq.c ****       /* Issue an IN token */
 694:Middlewares/ST/STM32_USB_Host_Library/Core/Src/usbh_ctlreq.c ****       phost->Control.timer = (uint16_t)phost->Timer;
 695:Middlewares/ST/STM32_USB_Host_Library/Core/Src/usbh_ctlreq.c ****       USBH_CtlReceiveData(phost, phost->Control.buff, phost->Control.length,
 696:Middlewares/ST/STM32_USB_Host_Library/Core/Src/usbh_ctlreq.c ****                           phost->Control.pipe_in);
 697:Middlewares/ST/STM32_USB_Host_Library/Core/Src/usbh_ctlreq.c **** 
 698:Middlewares/ST/STM32_USB_Host_Library/Core/Src/usbh_ctlreq.c ****       phost->Control.state = CTRL_DATA_IN_WAIT;
 699:Middlewares/ST/STM32_USB_Host_Library/Core/Src/usbh_ctlreq.c ****       break;
 700:Middlewares/ST/STM32_USB_Host_Library/Core/Src/usbh_ctlreq.c **** 
 701:Middlewares/ST/STM32_USB_Host_Library/Core/Src/usbh_ctlreq.c ****     case CTRL_DATA_IN_WAIT:
 702:Middlewares/ST/STM32_USB_Host_Library/Core/Src/usbh_ctlreq.c **** 
 703:Middlewares/ST/STM32_USB_Host_Library/Core/Src/usbh_ctlreq.c ****       URB_Status = USBH_LL_GetURBState(phost, phost->Control.pipe_in);
 704:Middlewares/ST/STM32_USB_Host_Library/Core/Src/usbh_ctlreq.c **** 
 705:Middlewares/ST/STM32_USB_Host_Library/Core/Src/usbh_ctlreq.c ****       /* check is DATA packet transferred successfully */
 706:Middlewares/ST/STM32_USB_Host_Library/Core/Src/usbh_ctlreq.c ****       if (URB_Status == USBH_URB_DONE)
 707:Middlewares/ST/STM32_USB_Host_Library/Core/Src/usbh_ctlreq.c ****       {
 708:Middlewares/ST/STM32_USB_Host_Library/Core/Src/usbh_ctlreq.c ****         phost->Control.state = CTRL_STATUS_OUT;
 709:Middlewares/ST/STM32_USB_Host_Library/Core/Src/usbh_ctlreq.c **** 
 710:Middlewares/ST/STM32_USB_Host_Library/Core/Src/usbh_ctlreq.c **** #if (USBH_USE_OS == 1U)
 711:Middlewares/ST/STM32_USB_Host_Library/Core/Src/usbh_ctlreq.c ****         phost->os_msg = (uint32_t)USBH_CONTROL_EVENT;
 712:Middlewares/ST/STM32_USB_Host_Library/Core/Src/usbh_ctlreq.c **** #if (osCMSIS < 0x20000U)
ARM GAS  C:\Users\Acer\AppData\Local\Temp\cc74HznB.s 			page 20


 713:Middlewares/ST/STM32_USB_Host_Library/Core/Src/usbh_ctlreq.c ****         (void)osMessagePut(phost->os_event, phost->os_msg, 0U);
 714:Middlewares/ST/STM32_USB_Host_Library/Core/Src/usbh_ctlreq.c **** #else
 715:Middlewares/ST/STM32_USB_Host_Library/Core/Src/usbh_ctlreq.c ****         (void)osMessageQueuePut(phost->os_event, &phost->os_msg, 0U, NULL);
 716:Middlewares/ST/STM32_USB_Host_Library/Core/Src/usbh_ctlreq.c **** #endif
 717:Middlewares/ST/STM32_USB_Host_Library/Core/Src/usbh_ctlreq.c **** #endif
 718:Middlewares/ST/STM32_USB_Host_Library/Core/Src/usbh_ctlreq.c ****       }
 719:Middlewares/ST/STM32_USB_Host_Library/Core/Src/usbh_ctlreq.c **** 
 720:Middlewares/ST/STM32_USB_Host_Library/Core/Src/usbh_ctlreq.c ****       /* manage error cases*/
 721:Middlewares/ST/STM32_USB_Host_Library/Core/Src/usbh_ctlreq.c ****       if (URB_Status == USBH_URB_STALL)
 722:Middlewares/ST/STM32_USB_Host_Library/Core/Src/usbh_ctlreq.c ****       {
 723:Middlewares/ST/STM32_USB_Host_Library/Core/Src/usbh_ctlreq.c ****         /* In stall case, return to previous machine state*/
 724:Middlewares/ST/STM32_USB_Host_Library/Core/Src/usbh_ctlreq.c ****         status = USBH_NOT_SUPPORTED;
 725:Middlewares/ST/STM32_USB_Host_Library/Core/Src/usbh_ctlreq.c **** 
 726:Middlewares/ST/STM32_USB_Host_Library/Core/Src/usbh_ctlreq.c **** #if (USBH_USE_OS == 1U)
 727:Middlewares/ST/STM32_USB_Host_Library/Core/Src/usbh_ctlreq.c ****         phost->os_msg = (uint32_t)USBH_CONTROL_EVENT;
 728:Middlewares/ST/STM32_USB_Host_Library/Core/Src/usbh_ctlreq.c **** #if (osCMSIS < 0x20000U)
 729:Middlewares/ST/STM32_USB_Host_Library/Core/Src/usbh_ctlreq.c ****         (void)osMessagePut(phost->os_event, phost->os_msg, 0U);
 730:Middlewares/ST/STM32_USB_Host_Library/Core/Src/usbh_ctlreq.c **** #else
 731:Middlewares/ST/STM32_USB_Host_Library/Core/Src/usbh_ctlreq.c ****         (void)osMessageQueuePut(phost->os_event, &phost->os_msg, 0U, NULL);
 732:Middlewares/ST/STM32_USB_Host_Library/Core/Src/usbh_ctlreq.c **** #endif
 733:Middlewares/ST/STM32_USB_Host_Library/Core/Src/usbh_ctlreq.c **** #endif
 734:Middlewares/ST/STM32_USB_Host_Library/Core/Src/usbh_ctlreq.c ****       }
 735:Middlewares/ST/STM32_USB_Host_Library/Core/Src/usbh_ctlreq.c ****       else
 736:Middlewares/ST/STM32_USB_Host_Library/Core/Src/usbh_ctlreq.c ****       {
 737:Middlewares/ST/STM32_USB_Host_Library/Core/Src/usbh_ctlreq.c ****         if (URB_Status == USBH_URB_ERROR)
 738:Middlewares/ST/STM32_USB_Host_Library/Core/Src/usbh_ctlreq.c ****         {
 739:Middlewares/ST/STM32_USB_Host_Library/Core/Src/usbh_ctlreq.c ****           /* Device error */
 740:Middlewares/ST/STM32_USB_Host_Library/Core/Src/usbh_ctlreq.c ****           phost->Control.state = CTRL_ERROR;
 741:Middlewares/ST/STM32_USB_Host_Library/Core/Src/usbh_ctlreq.c **** 
 742:Middlewares/ST/STM32_USB_Host_Library/Core/Src/usbh_ctlreq.c **** #if (USBH_USE_OS == 1U)
 743:Middlewares/ST/STM32_USB_Host_Library/Core/Src/usbh_ctlreq.c ****           phost->os_msg = (uint32_t)USBH_CONTROL_EVENT;
 744:Middlewares/ST/STM32_USB_Host_Library/Core/Src/usbh_ctlreq.c **** #if (osCMSIS < 0x20000U)
 745:Middlewares/ST/STM32_USB_Host_Library/Core/Src/usbh_ctlreq.c ****           (void)osMessagePut(phost->os_event, phost->os_msg, 0U);
 746:Middlewares/ST/STM32_USB_Host_Library/Core/Src/usbh_ctlreq.c **** #else
 747:Middlewares/ST/STM32_USB_Host_Library/Core/Src/usbh_ctlreq.c ****           (void)osMessageQueuePut(phost->os_event, &phost->os_msg, 0U, NULL);
 748:Middlewares/ST/STM32_USB_Host_Library/Core/Src/usbh_ctlreq.c **** #endif
 749:Middlewares/ST/STM32_USB_Host_Library/Core/Src/usbh_ctlreq.c **** #endif
 750:Middlewares/ST/STM32_USB_Host_Library/Core/Src/usbh_ctlreq.c ****         }
 751:Middlewares/ST/STM32_USB_Host_Library/Core/Src/usbh_ctlreq.c ****       }
 752:Middlewares/ST/STM32_USB_Host_Library/Core/Src/usbh_ctlreq.c ****       break;
 753:Middlewares/ST/STM32_USB_Host_Library/Core/Src/usbh_ctlreq.c **** 
 754:Middlewares/ST/STM32_USB_Host_Library/Core/Src/usbh_ctlreq.c ****     case CTRL_DATA_OUT:
 755:Middlewares/ST/STM32_USB_Host_Library/Core/Src/usbh_ctlreq.c **** 
 756:Middlewares/ST/STM32_USB_Host_Library/Core/Src/usbh_ctlreq.c ****       USBH_CtlSendData(phost, phost->Control.buff, phost->Control.length,
 757:Middlewares/ST/STM32_USB_Host_Library/Core/Src/usbh_ctlreq.c ****                        phost->Control.pipe_out, 1U);
 758:Middlewares/ST/STM32_USB_Host_Library/Core/Src/usbh_ctlreq.c **** 
 759:Middlewares/ST/STM32_USB_Host_Library/Core/Src/usbh_ctlreq.c ****       phost->Control.timer = (uint16_t)phost->Timer;
 760:Middlewares/ST/STM32_USB_Host_Library/Core/Src/usbh_ctlreq.c ****       phost->Control.state = CTRL_DATA_OUT_WAIT;
 761:Middlewares/ST/STM32_USB_Host_Library/Core/Src/usbh_ctlreq.c ****       break;
 762:Middlewares/ST/STM32_USB_Host_Library/Core/Src/usbh_ctlreq.c **** 
 763:Middlewares/ST/STM32_USB_Host_Library/Core/Src/usbh_ctlreq.c ****     case CTRL_DATA_OUT_WAIT:
 764:Middlewares/ST/STM32_USB_Host_Library/Core/Src/usbh_ctlreq.c **** 
 765:Middlewares/ST/STM32_USB_Host_Library/Core/Src/usbh_ctlreq.c ****       URB_Status = USBH_LL_GetURBState(phost, phost->Control.pipe_out);
 766:Middlewares/ST/STM32_USB_Host_Library/Core/Src/usbh_ctlreq.c **** 
 767:Middlewares/ST/STM32_USB_Host_Library/Core/Src/usbh_ctlreq.c ****       if (URB_Status == USBH_URB_DONE)
 768:Middlewares/ST/STM32_USB_Host_Library/Core/Src/usbh_ctlreq.c ****       {
 769:Middlewares/ST/STM32_USB_Host_Library/Core/Src/usbh_ctlreq.c ****         /* If the Setup Pkt is sent successful, then change the state */
ARM GAS  C:\Users\Acer\AppData\Local\Temp\cc74HznB.s 			page 21


 770:Middlewares/ST/STM32_USB_Host_Library/Core/Src/usbh_ctlreq.c ****         phost->Control.state = CTRL_STATUS_IN;
 771:Middlewares/ST/STM32_USB_Host_Library/Core/Src/usbh_ctlreq.c **** 
 772:Middlewares/ST/STM32_USB_Host_Library/Core/Src/usbh_ctlreq.c **** #if (USBH_USE_OS == 1U)
 773:Middlewares/ST/STM32_USB_Host_Library/Core/Src/usbh_ctlreq.c ****         phost->os_msg = (uint32_t)USBH_CONTROL_EVENT;
 774:Middlewares/ST/STM32_USB_Host_Library/Core/Src/usbh_ctlreq.c **** #if (osCMSIS < 0x20000U)
 775:Middlewares/ST/STM32_USB_Host_Library/Core/Src/usbh_ctlreq.c ****         (void)osMessagePut(phost->os_event, phost->os_msg, 0U);
 776:Middlewares/ST/STM32_USB_Host_Library/Core/Src/usbh_ctlreq.c **** #else
 777:Middlewares/ST/STM32_USB_Host_Library/Core/Src/usbh_ctlreq.c ****         (void)osMessageQueuePut(phost->os_event, &phost->os_msg, 0U, NULL);
 778:Middlewares/ST/STM32_USB_Host_Library/Core/Src/usbh_ctlreq.c **** #endif
 779:Middlewares/ST/STM32_USB_Host_Library/Core/Src/usbh_ctlreq.c **** #endif
 780:Middlewares/ST/STM32_USB_Host_Library/Core/Src/usbh_ctlreq.c ****       }
 781:Middlewares/ST/STM32_USB_Host_Library/Core/Src/usbh_ctlreq.c **** 
 782:Middlewares/ST/STM32_USB_Host_Library/Core/Src/usbh_ctlreq.c ****       /* handle error cases */
 783:Middlewares/ST/STM32_USB_Host_Library/Core/Src/usbh_ctlreq.c ****       else if (URB_Status == USBH_URB_STALL)
 784:Middlewares/ST/STM32_USB_Host_Library/Core/Src/usbh_ctlreq.c ****       {
 785:Middlewares/ST/STM32_USB_Host_Library/Core/Src/usbh_ctlreq.c ****         /* In stall case, return to previous machine state*/
 786:Middlewares/ST/STM32_USB_Host_Library/Core/Src/usbh_ctlreq.c ****         phost->Control.state = CTRL_STALLED;
 787:Middlewares/ST/STM32_USB_Host_Library/Core/Src/usbh_ctlreq.c ****         status = USBH_NOT_SUPPORTED;
 788:Middlewares/ST/STM32_USB_Host_Library/Core/Src/usbh_ctlreq.c **** 
 789:Middlewares/ST/STM32_USB_Host_Library/Core/Src/usbh_ctlreq.c **** #if (USBH_USE_OS == 1U)
 790:Middlewares/ST/STM32_USB_Host_Library/Core/Src/usbh_ctlreq.c ****         phost->os_msg = (uint32_t)USBH_CONTROL_EVENT;
 791:Middlewares/ST/STM32_USB_Host_Library/Core/Src/usbh_ctlreq.c **** #if (osCMSIS < 0x20000U)
 792:Middlewares/ST/STM32_USB_Host_Library/Core/Src/usbh_ctlreq.c ****         (void)osMessagePut(phost->os_event, phost->os_msg, 0U);
 793:Middlewares/ST/STM32_USB_Host_Library/Core/Src/usbh_ctlreq.c **** #else
 794:Middlewares/ST/STM32_USB_Host_Library/Core/Src/usbh_ctlreq.c ****         (void)osMessageQueuePut(phost->os_event, &phost->os_msg, 0U, NULL);
 795:Middlewares/ST/STM32_USB_Host_Library/Core/Src/usbh_ctlreq.c **** #endif
 796:Middlewares/ST/STM32_USB_Host_Library/Core/Src/usbh_ctlreq.c **** #endif
 797:Middlewares/ST/STM32_USB_Host_Library/Core/Src/usbh_ctlreq.c ****       }
 798:Middlewares/ST/STM32_USB_Host_Library/Core/Src/usbh_ctlreq.c ****       else if (URB_Status == USBH_URB_NOTREADY)
 799:Middlewares/ST/STM32_USB_Host_Library/Core/Src/usbh_ctlreq.c ****       {
 800:Middlewares/ST/STM32_USB_Host_Library/Core/Src/usbh_ctlreq.c ****         /* Nack received from device */
 801:Middlewares/ST/STM32_USB_Host_Library/Core/Src/usbh_ctlreq.c ****         phost->Control.state = CTRL_DATA_OUT;
 802:Middlewares/ST/STM32_USB_Host_Library/Core/Src/usbh_ctlreq.c **** 
 803:Middlewares/ST/STM32_USB_Host_Library/Core/Src/usbh_ctlreq.c **** #if (USBH_USE_OS == 1U)
 804:Middlewares/ST/STM32_USB_Host_Library/Core/Src/usbh_ctlreq.c ****         phost->os_msg = (uint32_t)USBH_CONTROL_EVENT;
 805:Middlewares/ST/STM32_USB_Host_Library/Core/Src/usbh_ctlreq.c **** #if (osCMSIS < 0x20000U)
 806:Middlewares/ST/STM32_USB_Host_Library/Core/Src/usbh_ctlreq.c ****         (void)osMessagePut(phost->os_event, phost->os_msg, 0U);
 807:Middlewares/ST/STM32_USB_Host_Library/Core/Src/usbh_ctlreq.c **** #else
 808:Middlewares/ST/STM32_USB_Host_Library/Core/Src/usbh_ctlreq.c ****         (void)osMessageQueuePut(phost->os_event, &phost->os_msg, 0U, NULL);
 809:Middlewares/ST/STM32_USB_Host_Library/Core/Src/usbh_ctlreq.c **** #endif
 810:Middlewares/ST/STM32_USB_Host_Library/Core/Src/usbh_ctlreq.c **** #endif
 811:Middlewares/ST/STM32_USB_Host_Library/Core/Src/usbh_ctlreq.c ****       }
 812:Middlewares/ST/STM32_USB_Host_Library/Core/Src/usbh_ctlreq.c ****       else
 813:Middlewares/ST/STM32_USB_Host_Library/Core/Src/usbh_ctlreq.c ****       {
 814:Middlewares/ST/STM32_USB_Host_Library/Core/Src/usbh_ctlreq.c ****         if (URB_Status == USBH_URB_ERROR)
 815:Middlewares/ST/STM32_USB_Host_Library/Core/Src/usbh_ctlreq.c ****         {
 816:Middlewares/ST/STM32_USB_Host_Library/Core/Src/usbh_ctlreq.c ****           /* device error */
 817:Middlewares/ST/STM32_USB_Host_Library/Core/Src/usbh_ctlreq.c ****           phost->Control.state = CTRL_ERROR;
 818:Middlewares/ST/STM32_USB_Host_Library/Core/Src/usbh_ctlreq.c ****           status = USBH_FAIL;
 819:Middlewares/ST/STM32_USB_Host_Library/Core/Src/usbh_ctlreq.c **** 
 820:Middlewares/ST/STM32_USB_Host_Library/Core/Src/usbh_ctlreq.c **** #if (USBH_USE_OS == 1U)
 821:Middlewares/ST/STM32_USB_Host_Library/Core/Src/usbh_ctlreq.c ****           phost->os_msg = (uint32_t)USBH_CONTROL_EVENT;
 822:Middlewares/ST/STM32_USB_Host_Library/Core/Src/usbh_ctlreq.c **** #if (osCMSIS < 0x20000U)
 823:Middlewares/ST/STM32_USB_Host_Library/Core/Src/usbh_ctlreq.c ****           (void)osMessagePut(phost->os_event, phost->os_msg, 0U);
 824:Middlewares/ST/STM32_USB_Host_Library/Core/Src/usbh_ctlreq.c **** #else
 825:Middlewares/ST/STM32_USB_Host_Library/Core/Src/usbh_ctlreq.c ****           (void)osMessageQueuePut(phost->os_event, &phost->os_msg, 0U, NULL);
 826:Middlewares/ST/STM32_USB_Host_Library/Core/Src/usbh_ctlreq.c **** #endif
ARM GAS  C:\Users\Acer\AppData\Local\Temp\cc74HznB.s 			page 22


 827:Middlewares/ST/STM32_USB_Host_Library/Core/Src/usbh_ctlreq.c **** #endif
 828:Middlewares/ST/STM32_USB_Host_Library/Core/Src/usbh_ctlreq.c ****         }
 829:Middlewares/ST/STM32_USB_Host_Library/Core/Src/usbh_ctlreq.c ****       }
 830:Middlewares/ST/STM32_USB_Host_Library/Core/Src/usbh_ctlreq.c ****       break;
 831:Middlewares/ST/STM32_USB_Host_Library/Core/Src/usbh_ctlreq.c **** 
 832:Middlewares/ST/STM32_USB_Host_Library/Core/Src/usbh_ctlreq.c ****     case CTRL_STATUS_IN:
 833:Middlewares/ST/STM32_USB_Host_Library/Core/Src/usbh_ctlreq.c ****       /* Send 0 bytes out packet */
 834:Middlewares/ST/STM32_USB_Host_Library/Core/Src/usbh_ctlreq.c ****       USBH_CtlReceiveData(phost, 0U, 0U, phost->Control.pipe_in);
 835:Middlewares/ST/STM32_USB_Host_Library/Core/Src/usbh_ctlreq.c **** 
 836:Middlewares/ST/STM32_USB_Host_Library/Core/Src/usbh_ctlreq.c ****       phost->Control.timer = (uint16_t)phost->Timer;
 837:Middlewares/ST/STM32_USB_Host_Library/Core/Src/usbh_ctlreq.c ****       phost->Control.state = CTRL_STATUS_IN_WAIT;
 838:Middlewares/ST/STM32_USB_Host_Library/Core/Src/usbh_ctlreq.c **** 
 839:Middlewares/ST/STM32_USB_Host_Library/Core/Src/usbh_ctlreq.c ****       break;
 840:Middlewares/ST/STM32_USB_Host_Library/Core/Src/usbh_ctlreq.c **** 
 841:Middlewares/ST/STM32_USB_Host_Library/Core/Src/usbh_ctlreq.c ****     case CTRL_STATUS_IN_WAIT:
 842:Middlewares/ST/STM32_USB_Host_Library/Core/Src/usbh_ctlreq.c **** 
 843:Middlewares/ST/STM32_USB_Host_Library/Core/Src/usbh_ctlreq.c ****       URB_Status = USBH_LL_GetURBState(phost, phost->Control.pipe_in);
 844:Middlewares/ST/STM32_USB_Host_Library/Core/Src/usbh_ctlreq.c **** 
 845:Middlewares/ST/STM32_USB_Host_Library/Core/Src/usbh_ctlreq.c ****       if (URB_Status == USBH_URB_DONE)
 846:Middlewares/ST/STM32_USB_Host_Library/Core/Src/usbh_ctlreq.c ****       {
 847:Middlewares/ST/STM32_USB_Host_Library/Core/Src/usbh_ctlreq.c ****         /* Control transfers completed, Exit the State Machine */
 848:Middlewares/ST/STM32_USB_Host_Library/Core/Src/usbh_ctlreq.c ****         phost->Control.state = CTRL_COMPLETE;
 849:Middlewares/ST/STM32_USB_Host_Library/Core/Src/usbh_ctlreq.c ****         status = USBH_OK;
 850:Middlewares/ST/STM32_USB_Host_Library/Core/Src/usbh_ctlreq.c **** 
 851:Middlewares/ST/STM32_USB_Host_Library/Core/Src/usbh_ctlreq.c **** #if (USBH_USE_OS == 1U)
 852:Middlewares/ST/STM32_USB_Host_Library/Core/Src/usbh_ctlreq.c ****         phost->os_msg = (uint32_t)USBH_CONTROL_EVENT;
 853:Middlewares/ST/STM32_USB_Host_Library/Core/Src/usbh_ctlreq.c **** #if (osCMSIS < 0x20000U)
 854:Middlewares/ST/STM32_USB_Host_Library/Core/Src/usbh_ctlreq.c ****         (void)osMessagePut(phost->os_event, phost->os_msg, 0U);
 855:Middlewares/ST/STM32_USB_Host_Library/Core/Src/usbh_ctlreq.c **** #else
 856:Middlewares/ST/STM32_USB_Host_Library/Core/Src/usbh_ctlreq.c ****         (void)osMessageQueuePut(phost->os_event, &phost->os_msg, 0U, NULL);
 857:Middlewares/ST/STM32_USB_Host_Library/Core/Src/usbh_ctlreq.c **** #endif
 858:Middlewares/ST/STM32_USB_Host_Library/Core/Src/usbh_ctlreq.c **** #endif
 859:Middlewares/ST/STM32_USB_Host_Library/Core/Src/usbh_ctlreq.c ****       }
 860:Middlewares/ST/STM32_USB_Host_Library/Core/Src/usbh_ctlreq.c ****       else if (URB_Status == USBH_URB_ERROR)
 861:Middlewares/ST/STM32_USB_Host_Library/Core/Src/usbh_ctlreq.c ****       {
 862:Middlewares/ST/STM32_USB_Host_Library/Core/Src/usbh_ctlreq.c ****         phost->Control.state = CTRL_ERROR;
 863:Middlewares/ST/STM32_USB_Host_Library/Core/Src/usbh_ctlreq.c **** 
 864:Middlewares/ST/STM32_USB_Host_Library/Core/Src/usbh_ctlreq.c **** #if (USBH_USE_OS == 1U)
 865:Middlewares/ST/STM32_USB_Host_Library/Core/Src/usbh_ctlreq.c ****         phost->os_msg = (uint32_t)USBH_CONTROL_EVENT;
 866:Middlewares/ST/STM32_USB_Host_Library/Core/Src/usbh_ctlreq.c **** #if (osCMSIS < 0x20000U)
 867:Middlewares/ST/STM32_USB_Host_Library/Core/Src/usbh_ctlreq.c ****         (void)osMessagePut(phost->os_event, phost->os_msg, 0U);
 868:Middlewares/ST/STM32_USB_Host_Library/Core/Src/usbh_ctlreq.c **** #else
 869:Middlewares/ST/STM32_USB_Host_Library/Core/Src/usbh_ctlreq.c ****         (void)osMessageQueuePut(phost->os_event, &phost->os_msg, 0U, NULL);
 870:Middlewares/ST/STM32_USB_Host_Library/Core/Src/usbh_ctlreq.c **** #endif
 871:Middlewares/ST/STM32_USB_Host_Library/Core/Src/usbh_ctlreq.c **** #endif
 872:Middlewares/ST/STM32_USB_Host_Library/Core/Src/usbh_ctlreq.c ****       }
 873:Middlewares/ST/STM32_USB_Host_Library/Core/Src/usbh_ctlreq.c ****       else
 874:Middlewares/ST/STM32_USB_Host_Library/Core/Src/usbh_ctlreq.c ****       {
 875:Middlewares/ST/STM32_USB_Host_Library/Core/Src/usbh_ctlreq.c ****         if (URB_Status == USBH_URB_STALL)
 876:Middlewares/ST/STM32_USB_Host_Library/Core/Src/usbh_ctlreq.c ****         {
 877:Middlewares/ST/STM32_USB_Host_Library/Core/Src/usbh_ctlreq.c ****           /* Control transfers completed, Exit the State Machine */
 878:Middlewares/ST/STM32_USB_Host_Library/Core/Src/usbh_ctlreq.c ****           status = USBH_NOT_SUPPORTED;
 879:Middlewares/ST/STM32_USB_Host_Library/Core/Src/usbh_ctlreq.c **** 
 880:Middlewares/ST/STM32_USB_Host_Library/Core/Src/usbh_ctlreq.c **** #if (USBH_USE_OS == 1U)
 881:Middlewares/ST/STM32_USB_Host_Library/Core/Src/usbh_ctlreq.c ****           phost->os_msg = (uint32_t)USBH_CONTROL_EVENT;
 882:Middlewares/ST/STM32_USB_Host_Library/Core/Src/usbh_ctlreq.c **** #if (osCMSIS < 0x20000U)
 883:Middlewares/ST/STM32_USB_Host_Library/Core/Src/usbh_ctlreq.c ****           (void)osMessagePut(phost->os_event, phost->os_msg, 0U);
ARM GAS  C:\Users\Acer\AppData\Local\Temp\cc74HznB.s 			page 23


 884:Middlewares/ST/STM32_USB_Host_Library/Core/Src/usbh_ctlreq.c **** #else
 885:Middlewares/ST/STM32_USB_Host_Library/Core/Src/usbh_ctlreq.c ****           (void)osMessageQueuePut(phost->os_event, &phost->os_msg, 0U, NULL);
 886:Middlewares/ST/STM32_USB_Host_Library/Core/Src/usbh_ctlreq.c **** #endif
 887:Middlewares/ST/STM32_USB_Host_Library/Core/Src/usbh_ctlreq.c **** #endif
 888:Middlewares/ST/STM32_USB_Host_Library/Core/Src/usbh_ctlreq.c ****         }
 889:Middlewares/ST/STM32_USB_Host_Library/Core/Src/usbh_ctlreq.c ****       }
 890:Middlewares/ST/STM32_USB_Host_Library/Core/Src/usbh_ctlreq.c ****       break;
 891:Middlewares/ST/STM32_USB_Host_Library/Core/Src/usbh_ctlreq.c **** 
 892:Middlewares/ST/STM32_USB_Host_Library/Core/Src/usbh_ctlreq.c ****     case CTRL_STATUS_OUT:
 893:Middlewares/ST/STM32_USB_Host_Library/Core/Src/usbh_ctlreq.c ****       USBH_CtlSendData(phost, 0U, 0U, phost->Control.pipe_out, 1U);
 894:Middlewares/ST/STM32_USB_Host_Library/Core/Src/usbh_ctlreq.c **** 
 895:Middlewares/ST/STM32_USB_Host_Library/Core/Src/usbh_ctlreq.c ****       phost->Control.timer = (uint16_t)phost->Timer;
 896:Middlewares/ST/STM32_USB_Host_Library/Core/Src/usbh_ctlreq.c ****       phost->Control.state = CTRL_STATUS_OUT_WAIT;
 897:Middlewares/ST/STM32_USB_Host_Library/Core/Src/usbh_ctlreq.c ****       break;
 898:Middlewares/ST/STM32_USB_Host_Library/Core/Src/usbh_ctlreq.c **** 
 899:Middlewares/ST/STM32_USB_Host_Library/Core/Src/usbh_ctlreq.c ****     case CTRL_STATUS_OUT_WAIT:
 900:Middlewares/ST/STM32_USB_Host_Library/Core/Src/usbh_ctlreq.c ****       URB_Status = USBH_LL_GetURBState(phost, phost->Control.pipe_out);
 901:Middlewares/ST/STM32_USB_Host_Library/Core/Src/usbh_ctlreq.c ****       if (URB_Status == USBH_URB_DONE)
 902:Middlewares/ST/STM32_USB_Host_Library/Core/Src/usbh_ctlreq.c ****       {
 903:Middlewares/ST/STM32_USB_Host_Library/Core/Src/usbh_ctlreq.c ****         status = USBH_OK;
 904:Middlewares/ST/STM32_USB_Host_Library/Core/Src/usbh_ctlreq.c ****         phost->Control.state = CTRL_COMPLETE;
 905:Middlewares/ST/STM32_USB_Host_Library/Core/Src/usbh_ctlreq.c **** 
 906:Middlewares/ST/STM32_USB_Host_Library/Core/Src/usbh_ctlreq.c **** #if (USBH_USE_OS == 1U)
 907:Middlewares/ST/STM32_USB_Host_Library/Core/Src/usbh_ctlreq.c ****         phost->os_msg = (uint32_t)USBH_CONTROL_EVENT;
 908:Middlewares/ST/STM32_USB_Host_Library/Core/Src/usbh_ctlreq.c **** #if (osCMSIS < 0x20000U)
 909:Middlewares/ST/STM32_USB_Host_Library/Core/Src/usbh_ctlreq.c ****         (void)osMessagePut(phost->os_event, phost->os_msg, 0U);
 910:Middlewares/ST/STM32_USB_Host_Library/Core/Src/usbh_ctlreq.c **** #else
 911:Middlewares/ST/STM32_USB_Host_Library/Core/Src/usbh_ctlreq.c ****         (void)osMessageQueuePut(phost->os_event, &phost->os_msg, 0U, NULL);
 912:Middlewares/ST/STM32_USB_Host_Library/Core/Src/usbh_ctlreq.c **** #endif
 913:Middlewares/ST/STM32_USB_Host_Library/Core/Src/usbh_ctlreq.c **** #endif
 914:Middlewares/ST/STM32_USB_Host_Library/Core/Src/usbh_ctlreq.c ****       }
 915:Middlewares/ST/STM32_USB_Host_Library/Core/Src/usbh_ctlreq.c ****       else if (URB_Status == USBH_URB_NOTREADY)
 916:Middlewares/ST/STM32_USB_Host_Library/Core/Src/usbh_ctlreq.c ****       {
 917:Middlewares/ST/STM32_USB_Host_Library/Core/Src/usbh_ctlreq.c ****         phost->Control.state = CTRL_STATUS_OUT;
 918:Middlewares/ST/STM32_USB_Host_Library/Core/Src/usbh_ctlreq.c **** 
 919:Middlewares/ST/STM32_USB_Host_Library/Core/Src/usbh_ctlreq.c **** #if (USBH_USE_OS == 1U)
 920:Middlewares/ST/STM32_USB_Host_Library/Core/Src/usbh_ctlreq.c ****         phost->os_msg = (uint32_t)USBH_CONTROL_EVENT;
 921:Middlewares/ST/STM32_USB_Host_Library/Core/Src/usbh_ctlreq.c **** #if (osCMSIS < 0x20000U)
 922:Middlewares/ST/STM32_USB_Host_Library/Core/Src/usbh_ctlreq.c ****         (void)osMessagePut(phost->os_event, phost->os_msg, 0U);
 923:Middlewares/ST/STM32_USB_Host_Library/Core/Src/usbh_ctlreq.c **** #else
 924:Middlewares/ST/STM32_USB_Host_Library/Core/Src/usbh_ctlreq.c ****         (void)osMessageQueuePut(phost->os_event, &phost->os_msg, 0U, NULL);
 925:Middlewares/ST/STM32_USB_Host_Library/Core/Src/usbh_ctlreq.c **** #endif
 926:Middlewares/ST/STM32_USB_Host_Library/Core/Src/usbh_ctlreq.c **** #endif
 927:Middlewares/ST/STM32_USB_Host_Library/Core/Src/usbh_ctlreq.c ****       }
 928:Middlewares/ST/STM32_USB_Host_Library/Core/Src/usbh_ctlreq.c ****       else
 929:Middlewares/ST/STM32_USB_Host_Library/Core/Src/usbh_ctlreq.c ****       {
 930:Middlewares/ST/STM32_USB_Host_Library/Core/Src/usbh_ctlreq.c ****         if (URB_Status == USBH_URB_ERROR)
 931:Middlewares/ST/STM32_USB_Host_Library/Core/Src/usbh_ctlreq.c ****         {
 932:Middlewares/ST/STM32_USB_Host_Library/Core/Src/usbh_ctlreq.c ****           phost->Control.state = CTRL_ERROR;
 933:Middlewares/ST/STM32_USB_Host_Library/Core/Src/usbh_ctlreq.c **** 
 934:Middlewares/ST/STM32_USB_Host_Library/Core/Src/usbh_ctlreq.c **** #if (USBH_USE_OS == 1U)
 935:Middlewares/ST/STM32_USB_Host_Library/Core/Src/usbh_ctlreq.c ****           phost->os_msg = (uint32_t)USBH_CONTROL_EVENT;
 936:Middlewares/ST/STM32_USB_Host_Library/Core/Src/usbh_ctlreq.c **** #if (osCMSIS < 0x20000U)
 937:Middlewares/ST/STM32_USB_Host_Library/Core/Src/usbh_ctlreq.c ****           (void)osMessagePut(phost->os_event, phost->os_msg, 0U);
 938:Middlewares/ST/STM32_USB_Host_Library/Core/Src/usbh_ctlreq.c **** #else
 939:Middlewares/ST/STM32_USB_Host_Library/Core/Src/usbh_ctlreq.c ****           (void)osMessageQueuePut(phost->os_event, &phost->os_msg, 0U, NULL);
 940:Middlewares/ST/STM32_USB_Host_Library/Core/Src/usbh_ctlreq.c **** #endif
ARM GAS  C:\Users\Acer\AppData\Local\Temp\cc74HznB.s 			page 24


 941:Middlewares/ST/STM32_USB_Host_Library/Core/Src/usbh_ctlreq.c **** #endif
 942:Middlewares/ST/STM32_USB_Host_Library/Core/Src/usbh_ctlreq.c ****         }
 943:Middlewares/ST/STM32_USB_Host_Library/Core/Src/usbh_ctlreq.c ****       }
 944:Middlewares/ST/STM32_USB_Host_Library/Core/Src/usbh_ctlreq.c ****       break;
 945:Middlewares/ST/STM32_USB_Host_Library/Core/Src/usbh_ctlreq.c **** 
 946:Middlewares/ST/STM32_USB_Host_Library/Core/Src/usbh_ctlreq.c ****     case CTRL_ERROR:
 947:Middlewares/ST/STM32_USB_Host_Library/Core/Src/usbh_ctlreq.c ****       /*
 948:Middlewares/ST/STM32_USB_Host_Library/Core/Src/usbh_ctlreq.c ****       After a halt condition is encountered or an error is detected by the
 949:Middlewares/ST/STM32_USB_Host_Library/Core/Src/usbh_ctlreq.c ****       host, a control endpoint is allowed to recover by accepting the next Setup
 950:Middlewares/ST/STM32_USB_Host_Library/Core/Src/usbh_ctlreq.c ****       PID; i.e., recovery actions via some other pipe are not required for control
 951:Middlewares/ST/STM32_USB_Host_Library/Core/Src/usbh_ctlreq.c ****       endpoints. For the Default Control Pipe, a device reset will ultimately be
 952:Middlewares/ST/STM32_USB_Host_Library/Core/Src/usbh_ctlreq.c ****       required to clear the halt or error condition if the next Setup PID is not
 953:Middlewares/ST/STM32_USB_Host_Library/Core/Src/usbh_ctlreq.c ****       accepted.
 954:Middlewares/ST/STM32_USB_Host_Library/Core/Src/usbh_ctlreq.c ****       */
 955:Middlewares/ST/STM32_USB_Host_Library/Core/Src/usbh_ctlreq.c ****       if (++phost->Control.errorcount <= USBH_MAX_ERROR_COUNT)
 956:Middlewares/ST/STM32_USB_Host_Library/Core/Src/usbh_ctlreq.c ****       {
 957:Middlewares/ST/STM32_USB_Host_Library/Core/Src/usbh_ctlreq.c ****         /* Do the transmission again, starting from SETUP Packet */
 958:Middlewares/ST/STM32_USB_Host_Library/Core/Src/usbh_ctlreq.c ****         phost->Control.state = CTRL_SETUP;
 959:Middlewares/ST/STM32_USB_Host_Library/Core/Src/usbh_ctlreq.c ****         phost->RequestState = CMD_SEND;
 960:Middlewares/ST/STM32_USB_Host_Library/Core/Src/usbh_ctlreq.c ****       }
 961:Middlewares/ST/STM32_USB_Host_Library/Core/Src/usbh_ctlreq.c ****       else
 962:Middlewares/ST/STM32_USB_Host_Library/Core/Src/usbh_ctlreq.c ****       {
 963:Middlewares/ST/STM32_USB_Host_Library/Core/Src/usbh_ctlreq.c ****         phost->pUser(phost, HOST_USER_UNRECOVERED_ERROR);
 964:Middlewares/ST/STM32_USB_Host_Library/Core/Src/usbh_ctlreq.c ****         phost->Control.errorcount = 0U;
 965:Middlewares/ST/STM32_USB_Host_Library/Core/Src/usbh_ctlreq.c ****         USBH_ErrLog("Control error: Device not responding");
 966:Middlewares/ST/STM32_USB_Host_Library/Core/Src/usbh_ctlreq.c **** 
 967:Middlewares/ST/STM32_USB_Host_Library/Core/Src/usbh_ctlreq.c ****         /* Free control pipes */
 968:Middlewares/ST/STM32_USB_Host_Library/Core/Src/usbh_ctlreq.c ****         USBH_FreePipe(phost, phost->Control.pipe_out);
 969:Middlewares/ST/STM32_USB_Host_Library/Core/Src/usbh_ctlreq.c ****         USBH_FreePipe(phost, phost->Control.pipe_in);
 970:Middlewares/ST/STM32_USB_Host_Library/Core/Src/usbh_ctlreq.c **** 
 971:Middlewares/ST/STM32_USB_Host_Library/Core/Src/usbh_ctlreq.c ****         phost->gState = HOST_IDLE;
 972:Middlewares/ST/STM32_USB_Host_Library/Core/Src/usbh_ctlreq.c ****         status = USBH_FAIL;
 973:Middlewares/ST/STM32_USB_Host_Library/Core/Src/usbh_ctlreq.c ****       }
 974:Middlewares/ST/STM32_USB_Host_Library/Core/Src/usbh_ctlreq.c ****       break;
 975:Middlewares/ST/STM32_USB_Host_Library/Core/Src/usbh_ctlreq.c **** 
 976:Middlewares/ST/STM32_USB_Host_Library/Core/Src/usbh_ctlreq.c ****     default:
 977:Middlewares/ST/STM32_USB_Host_Library/Core/Src/usbh_ctlreq.c ****       break;
 978:Middlewares/ST/STM32_USB_Host_Library/Core/Src/usbh_ctlreq.c ****   }
 979:Middlewares/ST/STM32_USB_Host_Library/Core/Src/usbh_ctlreq.c **** 
 980:Middlewares/ST/STM32_USB_Host_Library/Core/Src/usbh_ctlreq.c ****   return status;
 360              		.loc 1 980 3 view .LVU116
 981:Middlewares/ST/STM32_USB_Host_Library/Core/Src/usbh_ctlreq.c **** }
 361              		.loc 1 981 1 is_stmt 0 view .LVU117
 362 002e 2846     		mov	r0, r5
 363 0030 03B0     		add	sp, sp, #12
 364              	.LCFI2:
 365              		.cfi_remember_state
 366              		.cfi_def_cfa_offset 12
 367              		@ sp needed
 368 0032 30BD     		pop	{r4, r5, pc}
 369              	.LVL18:
 370              	.L22:
 371              	.LCFI3:
 372              		.cfi_restore_state
 629:Middlewares/ST/STM32_USB_Host_Library/Core/Src/usbh_ctlreq.c ****       /* case SETUP packet sent successfully */
 373              		.loc 1 629 7 is_stmt 1 view .LVU118
 629:Middlewares/ST/STM32_USB_Host_Library/Core/Src/usbh_ctlreq.c ****       /* case SETUP packet sent successfully */
ARM GAS  C:\Users\Acer\AppData\Local\Temp\cc74HznB.s 			page 25


 374              		.loc 1 629 20 is_stmt 0 view .LVU119
 375 0034 4179     		ldrb	r1, [r0, #5]	@ zero_extendqisi2
 376 0036 FFF7FEFF 		bl	USBH_LL_GetURBState
 377              	.LVL19:
 629:Middlewares/ST/STM32_USB_Host_Library/Core/Src/usbh_ctlreq.c ****       /* case SETUP packet sent successfully */
 378              		.loc 1 629 20 view .LVU120
 379 003a 0546     		mov	r5, r0
 380              	.LVL20:
 631:Middlewares/ST/STM32_USB_Host_Library/Core/Src/usbh_ctlreq.c ****       {
 381              		.loc 1 631 7 is_stmt 1 view .LVU121
 631:Middlewares/ST/STM32_USB_Host_Library/Core/Src/usbh_ctlreq.c ****       {
 382              		.loc 1 631 10 is_stmt 0 view .LVU122
 383 003c 0128     		cmp	r0, #1
 384 003e 05D0     		beq	.L46
 676:Middlewares/ST/STM32_USB_Host_Library/Core/Src/usbh_ctlreq.c ****         {
 385              		.loc 1 676 9 is_stmt 1 view .LVU123
 676:Middlewares/ST/STM32_USB_Host_Library/Core/Src/usbh_ctlreq.c ****         {
 386              		.loc 1 676 12 is_stmt 0 view .LVU124
 387 0040 0428     		cmp	r0, #4
 388 0042 18D0     		beq	.L28
 676:Middlewares/ST/STM32_USB_Host_Library/Core/Src/usbh_ctlreq.c ****         {
 389              		.loc 1 676 44 discriminator 1 view .LVU125
 390 0044 0228     		cmp	r0, #2
 391 0046 16D0     		beq	.L28
 614:Middlewares/ST/STM32_USB_Host_Library/Core/Src/usbh_ctlreq.c ****   USBH_URBStateTypeDef URB_Status = USBH_URB_IDLE;
 392              		.loc 1 614 22 view .LVU126
 393 0048 0125     		movs	r5, #1
 394 004a F0E7     		b	.L11
 395              	.L46:
 633:Middlewares/ST/STM32_USB_Host_Library/Core/Src/usbh_ctlreq.c **** 
 396              		.loc 1 633 9 is_stmt 1 view .LVU127
 633:Middlewares/ST/STM32_USB_Host_Library/Core/Src/usbh_ctlreq.c **** 
 397              		.loc 1 633 44 is_stmt 0 view .LVU128
 398 004c 237C     		ldrb	r3, [r4, #16]	@ zero_extendqisi2
 399              	.LVL21:
 636:Middlewares/ST/STM32_USB_Host_Library/Core/Src/usbh_ctlreq.c ****         {
 400              		.loc 1 636 9 is_stmt 1 view .LVU129
 636:Middlewares/ST/STM32_USB_Host_Library/Core/Src/usbh_ctlreq.c ****         {
 401              		.loc 1 636 43 is_stmt 0 view .LVU130
 402 004e E28A     		ldrh	r2, [r4, #22]
 636:Middlewares/ST/STM32_USB_Host_Library/Core/Src/usbh_ctlreq.c ****         {
 403              		.loc 1 636 12 view .LVU131
 404 0050 42B1     		cbz	r2, .L25
 638:Middlewares/ST/STM32_USB_Host_Library/Core/Src/usbh_ctlreq.c ****           {
 405              		.loc 1 638 11 is_stmt 1 view .LVU132
 638:Middlewares/ST/STM32_USB_Host_Library/Core/Src/usbh_ctlreq.c ****           {
 406              		.loc 1 638 14 is_stmt 0 view .LVU133
 407 0052 13F0800F 		tst	r3, #128
 408 0056 02D1     		bne	.L47
 646:Middlewares/ST/STM32_USB_Host_Library/Core/Src/usbh_ctlreq.c ****           }
 409              		.loc 1 646 13 is_stmt 1 view .LVU134
 646:Middlewares/ST/STM32_USB_Host_Library/Core/Src/usbh_ctlreq.c ****           }
 410              		.loc 1 646 34 is_stmt 0 view .LVU135
 411 0058 0523     		movs	r3, #5
 412              	.LVL22:
 646:Middlewares/ST/STM32_USB_Host_Library/Core/Src/usbh_ctlreq.c ****           }
 413              		.loc 1 646 34 view .LVU136
ARM GAS  C:\Users\Acer\AppData\Local\Temp\cc74HznB.s 			page 26


 414 005a 2376     		strb	r3, [r4, #24]
 415 005c E7E7     		b	.L11
 416              	.LVL23:
 417              	.L47:
 641:Middlewares/ST/STM32_USB_Host_Library/Core/Src/usbh_ctlreq.c ****           }
 418              		.loc 1 641 13 is_stmt 1 view .LVU137
 641:Middlewares/ST/STM32_USB_Host_Library/Core/Src/usbh_ctlreq.c ****           }
 419              		.loc 1 641 34 is_stmt 0 view .LVU138
 420 005e 0323     		movs	r3, #3
 421              	.LVL24:
 641:Middlewares/ST/STM32_USB_Host_Library/Core/Src/usbh_ctlreq.c ****           }
 422              		.loc 1 641 34 view .LVU139
 423 0060 2376     		strb	r3, [r4, #24]
 424 0062 E4E7     		b	.L11
 425              	.LVL25:
 426              	.L25:
 653:Middlewares/ST/STM32_USB_Host_Library/Core/Src/usbh_ctlreq.c ****           {
 427              		.loc 1 653 11 is_stmt 1 view .LVU140
 653:Middlewares/ST/STM32_USB_Host_Library/Core/Src/usbh_ctlreq.c ****           {
 428              		.loc 1 653 14 is_stmt 0 view .LVU141
 429 0064 13F0800F 		tst	r3, #128
 430 0068 02D1     		bne	.L48
 661:Middlewares/ST/STM32_USB_Host_Library/Core/Src/usbh_ctlreq.c ****           }
 431              		.loc 1 661 13 is_stmt 1 view .LVU142
 661:Middlewares/ST/STM32_USB_Host_Library/Core/Src/usbh_ctlreq.c ****           }
 432              		.loc 1 661 34 is_stmt 0 view .LVU143
 433 006a 0723     		movs	r3, #7
 434              	.LVL26:
 661:Middlewares/ST/STM32_USB_Host_Library/Core/Src/usbh_ctlreq.c ****           }
 435              		.loc 1 661 34 view .LVU144
 436 006c 2376     		strb	r3, [r4, #24]
 437 006e DEE7     		b	.L11
 438              	.LVL27:
 439              	.L48:
 656:Middlewares/ST/STM32_USB_Host_Library/Core/Src/usbh_ctlreq.c ****           }
 440              		.loc 1 656 13 is_stmt 1 view .LVU145
 656:Middlewares/ST/STM32_USB_Host_Library/Core/Src/usbh_ctlreq.c ****           }
 441              		.loc 1 656 34 is_stmt 0 view .LVU146
 442 0070 0923     		movs	r3, #9
 443              	.LVL28:
 656:Middlewares/ST/STM32_USB_Host_Library/Core/Src/usbh_ctlreq.c ****           }
 444              		.loc 1 656 34 view .LVU147
 445 0072 2376     		strb	r3, [r4, #24]
 446 0074 DBE7     		b	.L11
 447              	.LVL29:
 448              	.L28:
 678:Middlewares/ST/STM32_USB_Host_Library/Core/Src/usbh_ctlreq.c **** 
 449              		.loc 1 678 11 is_stmt 1 view .LVU148
 678:Middlewares/ST/STM32_USB_Host_Library/Core/Src/usbh_ctlreq.c **** 
 450              		.loc 1 678 32 is_stmt 0 view .LVU149
 451 0076 0B23     		movs	r3, #11
 452 0078 2376     		strb	r3, [r4, #24]
 614:Middlewares/ST/STM32_USB_Host_Library/Core/Src/usbh_ctlreq.c ****   USBH_URBStateTypeDef URB_Status = USBH_URB_IDLE;
 453              		.loc 1 614 22 view .LVU150
 454 007a 0125     		movs	r5, #1
 455 007c D7E7     		b	.L11
 456              	.LVL30:
ARM GAS  C:\Users\Acer\AppData\Local\Temp\cc74HznB.s 			page 27


 457              	.L21:
 694:Middlewares/ST/STM32_USB_Host_Library/Core/Src/usbh_ctlreq.c ****       USBH_CtlReceiveData(phost, phost->Control.buff, phost->Control.length,
 458              		.loc 1 694 7 is_stmt 1 view .LVU151
 694:Middlewares/ST/STM32_USB_Host_Library/Core/Src/usbh_ctlreq.c ****       USBH_CtlReceiveData(phost, phost->Control.buff, phost->Control.length,
 459              		.loc 1 694 45 is_stmt 0 view .LVU152
 460 007e D0F8C433 		ldr	r3, [r0, #964]
 694:Middlewares/ST/STM32_USB_Host_Library/Core/Src/usbh_ctlreq.c ****       USBH_CtlReceiveData(phost, phost->Control.buff, phost->Control.length,
 461              		.loc 1 694 28 view .LVU153
 462 0082 C381     		strh	r3, [r0, #14]	@ movhi
 695:Middlewares/ST/STM32_USB_Host_Library/Core/Src/usbh_ctlreq.c ****                           phost->Control.pipe_in);
 463              		.loc 1 695 7 is_stmt 1 view .LVU154
 464 0084 0379     		ldrb	r3, [r0, #4]	@ zero_extendqisi2
 465 0086 8289     		ldrh	r2, [r0, #12]
 466 0088 8168     		ldr	r1, [r0, #8]
 467 008a FFF7FEFF 		bl	USBH_CtlReceiveData
 468              	.LVL31:
 698:Middlewares/ST/STM32_USB_Host_Library/Core/Src/usbh_ctlreq.c ****       break;
 469              		.loc 1 698 7 view .LVU155
 698:Middlewares/ST/STM32_USB_Host_Library/Core/Src/usbh_ctlreq.c ****       break;
 470              		.loc 1 698 28 is_stmt 0 view .LVU156
 471 008e 0423     		movs	r3, #4
 472 0090 2376     		strb	r3, [r4, #24]
 699:Middlewares/ST/STM32_USB_Host_Library/Core/Src/usbh_ctlreq.c **** 
 473              		.loc 1 699 7 is_stmt 1 view .LVU157
 614:Middlewares/ST/STM32_USB_Host_Library/Core/Src/usbh_ctlreq.c ****   USBH_URBStateTypeDef URB_Status = USBH_URB_IDLE;
 474              		.loc 1 614 22 is_stmt 0 view .LVU158
 475 0092 0125     		movs	r5, #1
 699:Middlewares/ST/STM32_USB_Host_Library/Core/Src/usbh_ctlreq.c **** 
 476              		.loc 1 699 7 view .LVU159
 477 0094 CBE7     		b	.L11
 478              	.LVL32:
 479              	.L20:
 703:Middlewares/ST/STM32_USB_Host_Library/Core/Src/usbh_ctlreq.c **** 
 480              		.loc 1 703 7 is_stmt 1 view .LVU160
 703:Middlewares/ST/STM32_USB_Host_Library/Core/Src/usbh_ctlreq.c **** 
 481              		.loc 1 703 20 is_stmt 0 view .LVU161
 482 0096 0179     		ldrb	r1, [r0, #4]	@ zero_extendqisi2
 483 0098 FFF7FEFF 		bl	USBH_LL_GetURBState
 484              	.LVL33:
 706:Middlewares/ST/STM32_USB_Host_Library/Core/Src/usbh_ctlreq.c ****       {
 485              		.loc 1 706 7 is_stmt 1 view .LVU162
 706:Middlewares/ST/STM32_USB_Host_Library/Core/Src/usbh_ctlreq.c ****       {
 486              		.loc 1 706 10 is_stmt 0 view .LVU163
 487 009c 0128     		cmp	r0, #1
 488 009e 06D0     		beq	.L49
 489              	.L29:
 721:Middlewares/ST/STM32_USB_Host_Library/Core/Src/usbh_ctlreq.c ****       {
 490              		.loc 1 721 7 is_stmt 1 view .LVU164
 721:Middlewares/ST/STM32_USB_Host_Library/Core/Src/usbh_ctlreq.c ****       {
 491              		.loc 1 721 10 is_stmt 0 view .LVU165
 492 00a0 0528     		cmp	r0, #5
 493 00a2 00F09580 		beq	.L40
 737:Middlewares/ST/STM32_USB_Host_Library/Core/Src/usbh_ctlreq.c ****         {
 494              		.loc 1 737 9 is_stmt 1 view .LVU166
 737:Middlewares/ST/STM32_USB_Host_Library/Core/Src/usbh_ctlreq.c ****         {
 495              		.loc 1 737 12 is_stmt 0 view .LVU167
 496 00a6 0428     		cmp	r0, #4
ARM GAS  C:\Users\Acer\AppData\Local\Temp\cc74HznB.s 			page 28


 497 00a8 04D0     		beq	.L50
 614:Middlewares/ST/STM32_USB_Host_Library/Core/Src/usbh_ctlreq.c ****   USBH_URBStateTypeDef URB_Status = USBH_URB_IDLE;
 498              		.loc 1 614 22 view .LVU168
 499 00aa 0125     		movs	r5, #1
 500 00ac BFE7     		b	.L11
 501              	.L49:
 708:Middlewares/ST/STM32_USB_Host_Library/Core/Src/usbh_ctlreq.c **** 
 502              		.loc 1 708 9 is_stmt 1 view .LVU169
 708:Middlewares/ST/STM32_USB_Host_Library/Core/Src/usbh_ctlreq.c **** 
 503              		.loc 1 708 30 is_stmt 0 view .LVU170
 504 00ae 0923     		movs	r3, #9
 505 00b0 2376     		strb	r3, [r4, #24]
 506 00b2 F5E7     		b	.L29
 507              	.L50:
 740:Middlewares/ST/STM32_USB_Host_Library/Core/Src/usbh_ctlreq.c **** 
 508              		.loc 1 740 11 is_stmt 1 view .LVU171
 740:Middlewares/ST/STM32_USB_Host_Library/Core/Src/usbh_ctlreq.c **** 
 509              		.loc 1 740 32 is_stmt 0 view .LVU172
 510 00b4 0B23     		movs	r3, #11
 511 00b6 2376     		strb	r3, [r4, #24]
 614:Middlewares/ST/STM32_USB_Host_Library/Core/Src/usbh_ctlreq.c ****   USBH_URBStateTypeDef URB_Status = USBH_URB_IDLE;
 512              		.loc 1 614 22 view .LVU173
 513 00b8 0125     		movs	r5, #1
 514 00ba B8E7     		b	.L11
 515              	.LVL34:
 516              	.L19:
 756:Middlewares/ST/STM32_USB_Host_Library/Core/Src/usbh_ctlreq.c ****                        phost->Control.pipe_out, 1U);
 517              		.loc 1 756 7 is_stmt 1 view .LVU174
 518 00bc 0125     		movs	r5, #1
 519 00be 0095     		str	r5, [sp]
 520 00c0 4379     		ldrb	r3, [r0, #5]	@ zero_extendqisi2
 521 00c2 8289     		ldrh	r2, [r0, #12]
 522 00c4 8168     		ldr	r1, [r0, #8]
 523 00c6 FFF7FEFF 		bl	USBH_CtlSendData
 524              	.LVL35:
 759:Middlewares/ST/STM32_USB_Host_Library/Core/Src/usbh_ctlreq.c ****       phost->Control.state = CTRL_DATA_OUT_WAIT;
 525              		.loc 1 759 7 view .LVU175
 759:Middlewares/ST/STM32_USB_Host_Library/Core/Src/usbh_ctlreq.c ****       phost->Control.state = CTRL_DATA_OUT_WAIT;
 526              		.loc 1 759 45 is_stmt 0 view .LVU176
 527 00ca D4F8C433 		ldr	r3, [r4, #964]
 759:Middlewares/ST/STM32_USB_Host_Library/Core/Src/usbh_ctlreq.c ****       phost->Control.state = CTRL_DATA_OUT_WAIT;
 528              		.loc 1 759 28 view .LVU177
 529 00ce E381     		strh	r3, [r4, #14]	@ movhi
 760:Middlewares/ST/STM32_USB_Host_Library/Core/Src/usbh_ctlreq.c ****       break;
 530              		.loc 1 760 7 is_stmt 1 view .LVU178
 760:Middlewares/ST/STM32_USB_Host_Library/Core/Src/usbh_ctlreq.c ****       break;
 531              		.loc 1 760 28 is_stmt 0 view .LVU179
 532 00d0 0623     		movs	r3, #6
 533 00d2 2376     		strb	r3, [r4, #24]
 761:Middlewares/ST/STM32_USB_Host_Library/Core/Src/usbh_ctlreq.c **** 
 534              		.loc 1 761 7 is_stmt 1 view .LVU180
 535 00d4 ABE7     		b	.L11
 536              	.LVL36:
 537              	.L18:
 765:Middlewares/ST/STM32_USB_Host_Library/Core/Src/usbh_ctlreq.c **** 
 538              		.loc 1 765 7 view .LVU181
 765:Middlewares/ST/STM32_USB_Host_Library/Core/Src/usbh_ctlreq.c **** 
ARM GAS  C:\Users\Acer\AppData\Local\Temp\cc74HznB.s 			page 29


 539              		.loc 1 765 20 is_stmt 0 view .LVU182
 540 00d6 4179     		ldrb	r1, [r0, #5]	@ zero_extendqisi2
 541 00d8 FFF7FEFF 		bl	USBH_LL_GetURBState
 542              	.LVL37:
 765:Middlewares/ST/STM32_USB_Host_Library/Core/Src/usbh_ctlreq.c **** 
 543              		.loc 1 765 20 view .LVU183
 544 00dc 0546     		mov	r5, r0
 545              	.LVL38:
 767:Middlewares/ST/STM32_USB_Host_Library/Core/Src/usbh_ctlreq.c ****       {
 546              		.loc 1 767 7 is_stmt 1 view .LVU184
 767:Middlewares/ST/STM32_USB_Host_Library/Core/Src/usbh_ctlreq.c ****       {
 547              		.loc 1 767 10 is_stmt 0 view .LVU185
 548 00de 0128     		cmp	r0, #1
 549 00e0 07D0     		beq	.L51
 783:Middlewares/ST/STM32_USB_Host_Library/Core/Src/usbh_ctlreq.c ****       {
 550              		.loc 1 783 12 is_stmt 1 view .LVU186
 783:Middlewares/ST/STM32_USB_Host_Library/Core/Src/usbh_ctlreq.c ****       {
 551              		.loc 1 783 15 is_stmt 0 view .LVU187
 552 00e2 0528     		cmp	r0, #5
 553 00e4 08D0     		beq	.L52
 798:Middlewares/ST/STM32_USB_Host_Library/Core/Src/usbh_ctlreq.c ****       {
 554              		.loc 1 798 12 is_stmt 1 view .LVU188
 798:Middlewares/ST/STM32_USB_Host_Library/Core/Src/usbh_ctlreq.c ****       {
 555              		.loc 1 798 15 is_stmt 0 view .LVU189
 556 00e6 0228     		cmp	r0, #2
 557 00e8 0AD0     		beq	.L53
 814:Middlewares/ST/STM32_USB_Host_Library/Core/Src/usbh_ctlreq.c ****         {
 558              		.loc 1 814 9 is_stmt 1 view .LVU190
 814:Middlewares/ST/STM32_USB_Host_Library/Core/Src/usbh_ctlreq.c ****         {
 559              		.loc 1 814 12 is_stmt 0 view .LVU191
 560 00ea 0428     		cmp	r0, #4
 561 00ec 0CD0     		beq	.L54
 614:Middlewares/ST/STM32_USB_Host_Library/Core/Src/usbh_ctlreq.c ****   USBH_URBStateTypeDef URB_Status = USBH_URB_IDLE;
 562              		.loc 1 614 22 view .LVU192
 563 00ee 0125     		movs	r5, #1
 564 00f0 9DE7     		b	.L11
 565              	.L51:
 770:Middlewares/ST/STM32_USB_Host_Library/Core/Src/usbh_ctlreq.c **** 
 566              		.loc 1 770 9 is_stmt 1 view .LVU193
 770:Middlewares/ST/STM32_USB_Host_Library/Core/Src/usbh_ctlreq.c **** 
 567              		.loc 1 770 30 is_stmt 0 view .LVU194
 568 00f2 0723     		movs	r3, #7
 569 00f4 2376     		strb	r3, [r4, #24]
 570 00f6 9AE7     		b	.L11
 571              	.L52:
 786:Middlewares/ST/STM32_USB_Host_Library/Core/Src/usbh_ctlreq.c ****         status = USBH_NOT_SUPPORTED;
 572              		.loc 1 786 9 is_stmt 1 view .LVU195
 786:Middlewares/ST/STM32_USB_Host_Library/Core/Src/usbh_ctlreq.c ****         status = USBH_NOT_SUPPORTED;
 573              		.loc 1 786 30 is_stmt 0 view .LVU196
 574 00f8 0C23     		movs	r3, #12
 575 00fa 2376     		strb	r3, [r4, #24]
 787:Middlewares/ST/STM32_USB_Host_Library/Core/Src/usbh_ctlreq.c **** 
 576              		.loc 1 787 9 is_stmt 1 view .LVU197
 577              	.LVL39:
 787:Middlewares/ST/STM32_USB_Host_Library/Core/Src/usbh_ctlreq.c **** 
 578              		.loc 1 787 16 is_stmt 0 view .LVU198
 579 00fc 0325     		movs	r5, #3
ARM GAS  C:\Users\Acer\AppData\Local\Temp\cc74HznB.s 			page 30


 580 00fe 96E7     		b	.L11
 581              	.LVL40:
 582              	.L53:
 801:Middlewares/ST/STM32_USB_Host_Library/Core/Src/usbh_ctlreq.c **** 
 583              		.loc 1 801 9 is_stmt 1 view .LVU199
 801:Middlewares/ST/STM32_USB_Host_Library/Core/Src/usbh_ctlreq.c **** 
 584              		.loc 1 801 30 is_stmt 0 view .LVU200
 585 0100 0523     		movs	r3, #5
 586 0102 2376     		strb	r3, [r4, #24]
 614:Middlewares/ST/STM32_USB_Host_Library/Core/Src/usbh_ctlreq.c ****   USBH_URBStateTypeDef URB_Status = USBH_URB_IDLE;
 587              		.loc 1 614 22 view .LVU201
 588 0104 0125     		movs	r5, #1
 589 0106 92E7     		b	.L11
 590              	.L54:
 817:Middlewares/ST/STM32_USB_Host_Library/Core/Src/usbh_ctlreq.c ****           status = USBH_FAIL;
 591              		.loc 1 817 11 is_stmt 1 view .LVU202
 817:Middlewares/ST/STM32_USB_Host_Library/Core/Src/usbh_ctlreq.c ****           status = USBH_FAIL;
 592              		.loc 1 817 32 is_stmt 0 view .LVU203
 593 0108 0B23     		movs	r3, #11
 594 010a 2376     		strb	r3, [r4, #24]
 818:Middlewares/ST/STM32_USB_Host_Library/Core/Src/usbh_ctlreq.c **** 
 595              		.loc 1 818 11 is_stmt 1 view .LVU204
 596              	.LVL41:
 818:Middlewares/ST/STM32_USB_Host_Library/Core/Src/usbh_ctlreq.c **** 
 597              		.loc 1 818 18 is_stmt 0 view .LVU205
 598 010c 0225     		movs	r5, #2
 599 010e 8EE7     		b	.L11
 600              	.LVL42:
 601              	.L17:
 834:Middlewares/ST/STM32_USB_Host_Library/Core/Src/usbh_ctlreq.c **** 
 602              		.loc 1 834 7 is_stmt 1 view .LVU206
 603 0110 0379     		ldrb	r3, [r0, #4]	@ zero_extendqisi2
 604 0112 0022     		movs	r2, #0
 605 0114 1146     		mov	r1, r2
 606 0116 FFF7FEFF 		bl	USBH_CtlReceiveData
 607              	.LVL43:
 836:Middlewares/ST/STM32_USB_Host_Library/Core/Src/usbh_ctlreq.c ****       phost->Control.state = CTRL_STATUS_IN_WAIT;
 608              		.loc 1 836 7 view .LVU207
 836:Middlewares/ST/STM32_USB_Host_Library/Core/Src/usbh_ctlreq.c ****       phost->Control.state = CTRL_STATUS_IN_WAIT;
 609              		.loc 1 836 45 is_stmt 0 view .LVU208
 610 011a D4F8C433 		ldr	r3, [r4, #964]
 836:Middlewares/ST/STM32_USB_Host_Library/Core/Src/usbh_ctlreq.c ****       phost->Control.state = CTRL_STATUS_IN_WAIT;
 611              		.loc 1 836 28 view .LVU209
 612 011e E381     		strh	r3, [r4, #14]	@ movhi
 837:Middlewares/ST/STM32_USB_Host_Library/Core/Src/usbh_ctlreq.c **** 
 613              		.loc 1 837 7 is_stmt 1 view .LVU210
 837:Middlewares/ST/STM32_USB_Host_Library/Core/Src/usbh_ctlreq.c **** 
 614              		.loc 1 837 28 is_stmt 0 view .LVU211
 615 0120 0823     		movs	r3, #8
 616 0122 2376     		strb	r3, [r4, #24]
 839:Middlewares/ST/STM32_USB_Host_Library/Core/Src/usbh_ctlreq.c **** 
 617              		.loc 1 839 7 is_stmt 1 view .LVU212
 614:Middlewares/ST/STM32_USB_Host_Library/Core/Src/usbh_ctlreq.c ****   USBH_URBStateTypeDef URB_Status = USBH_URB_IDLE;
 618              		.loc 1 614 22 is_stmt 0 view .LVU213
 619 0124 0125     		movs	r5, #1
 839:Middlewares/ST/STM32_USB_Host_Library/Core/Src/usbh_ctlreq.c **** 
 620              		.loc 1 839 7 view .LVU214
ARM GAS  C:\Users\Acer\AppData\Local\Temp\cc74HznB.s 			page 31


 621 0126 82E7     		b	.L11
 622              	.LVL44:
 623              	.L16:
 843:Middlewares/ST/STM32_USB_Host_Library/Core/Src/usbh_ctlreq.c **** 
 624              		.loc 1 843 7 is_stmt 1 view .LVU215
 843:Middlewares/ST/STM32_USB_Host_Library/Core/Src/usbh_ctlreq.c **** 
 625              		.loc 1 843 20 is_stmt 0 view .LVU216
 626 0128 0179     		ldrb	r1, [r0, #4]	@ zero_extendqisi2
 627 012a FFF7FEFF 		bl	USBH_LL_GetURBState
 628              	.LVL45:
 845:Middlewares/ST/STM32_USB_Host_Library/Core/Src/usbh_ctlreq.c ****       {
 629              		.loc 1 845 7 is_stmt 1 view .LVU217
 845:Middlewares/ST/STM32_USB_Host_Library/Core/Src/usbh_ctlreq.c ****       {
 630              		.loc 1 845 10 is_stmt 0 view .LVU218
 631 012e 0128     		cmp	r0, #1
 632 0130 05D0     		beq	.L55
 860:Middlewares/ST/STM32_USB_Host_Library/Core/Src/usbh_ctlreq.c ****       {
 633              		.loc 1 860 12 is_stmt 1 view .LVU219
 860:Middlewares/ST/STM32_USB_Host_Library/Core/Src/usbh_ctlreq.c ****       {
 634              		.loc 1 860 15 is_stmt 0 view .LVU220
 635 0132 0428     		cmp	r0, #4
 636 0134 07D0     		beq	.L56
 875:Middlewares/ST/STM32_USB_Host_Library/Core/Src/usbh_ctlreq.c ****         {
 637              		.loc 1 875 9 is_stmt 1 view .LVU221
 875:Middlewares/ST/STM32_USB_Host_Library/Core/Src/usbh_ctlreq.c ****         {
 638              		.loc 1 875 12 is_stmt 0 view .LVU222
 639 0136 0528     		cmp	r0, #5
 640 0138 4CD0     		beq	.L43
 614:Middlewares/ST/STM32_USB_Host_Library/Core/Src/usbh_ctlreq.c ****   USBH_URBStateTypeDef URB_Status = USBH_URB_IDLE;
 641              		.loc 1 614 22 view .LVU223
 642 013a 0125     		movs	r5, #1
 643 013c 77E7     		b	.L11
 644              	.L55:
 848:Middlewares/ST/STM32_USB_Host_Library/Core/Src/usbh_ctlreq.c ****         status = USBH_OK;
 645              		.loc 1 848 9 is_stmt 1 view .LVU224
 848:Middlewares/ST/STM32_USB_Host_Library/Core/Src/usbh_ctlreq.c ****         status = USBH_OK;
 646              		.loc 1 848 30 is_stmt 0 view .LVU225
 647 013e 0D23     		movs	r3, #13
 648 0140 2376     		strb	r3, [r4, #24]
 849:Middlewares/ST/STM32_USB_Host_Library/Core/Src/usbh_ctlreq.c **** 
 649              		.loc 1 849 9 is_stmt 1 view .LVU226
 650              	.LVL46:
 849:Middlewares/ST/STM32_USB_Host_Library/Core/Src/usbh_ctlreq.c **** 
 651              		.loc 1 849 16 is_stmt 0 view .LVU227
 652 0142 0025     		movs	r5, #0
 653 0144 73E7     		b	.L11
 654              	.LVL47:
 655              	.L56:
 862:Middlewares/ST/STM32_USB_Host_Library/Core/Src/usbh_ctlreq.c **** 
 656              		.loc 1 862 9 is_stmt 1 view .LVU228
 862:Middlewares/ST/STM32_USB_Host_Library/Core/Src/usbh_ctlreq.c **** 
 657              		.loc 1 862 30 is_stmt 0 view .LVU229
 658 0146 0B23     		movs	r3, #11
 659 0148 2376     		strb	r3, [r4, #24]
 614:Middlewares/ST/STM32_USB_Host_Library/Core/Src/usbh_ctlreq.c ****   USBH_URBStateTypeDef URB_Status = USBH_URB_IDLE;
 660              		.loc 1 614 22 view .LVU230
 661 014a 0125     		movs	r5, #1
ARM GAS  C:\Users\Acer\AppData\Local\Temp\cc74HznB.s 			page 32


 662 014c 6FE7     		b	.L11
 663              	.LVL48:
 664              	.L15:
 893:Middlewares/ST/STM32_USB_Host_Library/Core/Src/usbh_ctlreq.c **** 
 665              		.loc 1 893 7 is_stmt 1 view .LVU231
 666 014e 0125     		movs	r5, #1
 667 0150 0095     		str	r5, [sp]
 668 0152 4379     		ldrb	r3, [r0, #5]	@ zero_extendqisi2
 669 0154 0022     		movs	r2, #0
 670 0156 1146     		mov	r1, r2
 671 0158 FFF7FEFF 		bl	USBH_CtlSendData
 672              	.LVL49:
 895:Middlewares/ST/STM32_USB_Host_Library/Core/Src/usbh_ctlreq.c ****       phost->Control.state = CTRL_STATUS_OUT_WAIT;
 673              		.loc 1 895 7 view .LVU232
 895:Middlewares/ST/STM32_USB_Host_Library/Core/Src/usbh_ctlreq.c ****       phost->Control.state = CTRL_STATUS_OUT_WAIT;
 674              		.loc 1 895 45 is_stmt 0 view .LVU233
 675 015c D4F8C433 		ldr	r3, [r4, #964]
 895:Middlewares/ST/STM32_USB_Host_Library/Core/Src/usbh_ctlreq.c ****       phost->Control.state = CTRL_STATUS_OUT_WAIT;
 676              		.loc 1 895 28 view .LVU234
 677 0160 E381     		strh	r3, [r4, #14]	@ movhi
 896:Middlewares/ST/STM32_USB_Host_Library/Core/Src/usbh_ctlreq.c ****       break;
 678              		.loc 1 896 7 is_stmt 1 view .LVU235
 896:Middlewares/ST/STM32_USB_Host_Library/Core/Src/usbh_ctlreq.c ****       break;
 679              		.loc 1 896 28 is_stmt 0 view .LVU236
 680 0162 0A23     		movs	r3, #10
 681 0164 2376     		strb	r3, [r4, #24]
 897:Middlewares/ST/STM32_USB_Host_Library/Core/Src/usbh_ctlreq.c **** 
 682              		.loc 1 897 7 is_stmt 1 view .LVU237
 683 0166 62E7     		b	.L11
 684              	.LVL50:
 685              	.L14:
 900:Middlewares/ST/STM32_USB_Host_Library/Core/Src/usbh_ctlreq.c ****       if (URB_Status == USBH_URB_DONE)
 686              		.loc 1 900 7 view .LVU238
 900:Middlewares/ST/STM32_USB_Host_Library/Core/Src/usbh_ctlreq.c ****       if (URB_Status == USBH_URB_DONE)
 687              		.loc 1 900 20 is_stmt 0 view .LVU239
 688 0168 4179     		ldrb	r1, [r0, #5]	@ zero_extendqisi2
 689 016a FFF7FEFF 		bl	USBH_LL_GetURBState
 690              	.LVL51:
 901:Middlewares/ST/STM32_USB_Host_Library/Core/Src/usbh_ctlreq.c ****       {
 691              		.loc 1 901 7 is_stmt 1 view .LVU240
 901:Middlewares/ST/STM32_USB_Host_Library/Core/Src/usbh_ctlreq.c ****       {
 692              		.loc 1 901 10 is_stmt 0 view .LVU241
 693 016e 0128     		cmp	r0, #1
 694 0170 05D0     		beq	.L57
 915:Middlewares/ST/STM32_USB_Host_Library/Core/Src/usbh_ctlreq.c ****       {
 695              		.loc 1 915 12 is_stmt 1 view .LVU242
 915:Middlewares/ST/STM32_USB_Host_Library/Core/Src/usbh_ctlreq.c ****       {
 696              		.loc 1 915 15 is_stmt 0 view .LVU243
 697 0172 0228     		cmp	r0, #2
 698 0174 07D0     		beq	.L58
 930:Middlewares/ST/STM32_USB_Host_Library/Core/Src/usbh_ctlreq.c ****         {
 699              		.loc 1 930 9 is_stmt 1 view .LVU244
 930:Middlewares/ST/STM32_USB_Host_Library/Core/Src/usbh_ctlreq.c ****         {
 700              		.loc 1 930 12 is_stmt 0 view .LVU245
 701 0176 0428     		cmp	r0, #4
 702 0178 09D0     		beq	.L59
 614:Middlewares/ST/STM32_USB_Host_Library/Core/Src/usbh_ctlreq.c ****   USBH_URBStateTypeDef URB_Status = USBH_URB_IDLE;
ARM GAS  C:\Users\Acer\AppData\Local\Temp\cc74HznB.s 			page 33


 703              		.loc 1 614 22 view .LVU246
 704 017a 0125     		movs	r5, #1
 705 017c 57E7     		b	.L11
 706              	.L57:
 903:Middlewares/ST/STM32_USB_Host_Library/Core/Src/usbh_ctlreq.c ****         phost->Control.state = CTRL_COMPLETE;
 707              		.loc 1 903 9 is_stmt 1 view .LVU247
 708              	.LVL52:
 904:Middlewares/ST/STM32_USB_Host_Library/Core/Src/usbh_ctlreq.c **** 
 709              		.loc 1 904 9 view .LVU248
 904:Middlewares/ST/STM32_USB_Host_Library/Core/Src/usbh_ctlreq.c **** 
 710              		.loc 1 904 30 is_stmt 0 view .LVU249
 711 017e 0D23     		movs	r3, #13
 712 0180 2376     		strb	r3, [r4, #24]
 903:Middlewares/ST/STM32_USB_Host_Library/Core/Src/usbh_ctlreq.c ****         phost->Control.state = CTRL_COMPLETE;
 713              		.loc 1 903 16 view .LVU250
 714 0182 0025     		movs	r5, #0
 715 0184 53E7     		b	.L11
 716              	.LVL53:
 717              	.L58:
 917:Middlewares/ST/STM32_USB_Host_Library/Core/Src/usbh_ctlreq.c **** 
 718              		.loc 1 917 9 is_stmt 1 view .LVU251
 917:Middlewares/ST/STM32_USB_Host_Library/Core/Src/usbh_ctlreq.c **** 
 719              		.loc 1 917 30 is_stmt 0 view .LVU252
 720 0186 0923     		movs	r3, #9
 721 0188 2376     		strb	r3, [r4, #24]
 614:Middlewares/ST/STM32_USB_Host_Library/Core/Src/usbh_ctlreq.c ****   USBH_URBStateTypeDef URB_Status = USBH_URB_IDLE;
 722              		.loc 1 614 22 view .LVU253
 723 018a 0125     		movs	r5, #1
 724 018c 4FE7     		b	.L11
 725              	.L59:
 932:Middlewares/ST/STM32_USB_Host_Library/Core/Src/usbh_ctlreq.c **** 
 726              		.loc 1 932 11 is_stmt 1 view .LVU254
 932:Middlewares/ST/STM32_USB_Host_Library/Core/Src/usbh_ctlreq.c **** 
 727              		.loc 1 932 32 is_stmt 0 view .LVU255
 728 018e 0B23     		movs	r3, #11
 729 0190 2376     		strb	r3, [r4, #24]
 614:Middlewares/ST/STM32_USB_Host_Library/Core/Src/usbh_ctlreq.c ****   USBH_URBStateTypeDef URB_Status = USBH_URB_IDLE;
 730              		.loc 1 614 22 view .LVU256
 731 0192 0125     		movs	r5, #1
 732 0194 4BE7     		b	.L11
 733              	.LVL54:
 734              	.L12:
 955:Middlewares/ST/STM32_USB_Host_Library/Core/Src/usbh_ctlreq.c ****       {
 735              		.loc 1 955 7 is_stmt 1 view .LVU257
 955:Middlewares/ST/STM32_USB_Host_Library/Core/Src/usbh_ctlreq.c ****       {
 736              		.loc 1 955 27 is_stmt 0 view .LVU258
 737 0196 437E     		ldrb	r3, [r0, #25]	@ zero_extendqisi2
 955:Middlewares/ST/STM32_USB_Host_Library/Core/Src/usbh_ctlreq.c ****       {
 738              		.loc 1 955 11 view .LVU259
 739 0198 0133     		adds	r3, r3, #1
 740 019a DBB2     		uxtb	r3, r3
 955:Middlewares/ST/STM32_USB_Host_Library/Core/Src/usbh_ctlreq.c ****       {
 741              		.loc 1 955 10 view .LVU260
 742 019c 4376     		strb	r3, [r0, #25]
 743 019e 022B     		cmp	r3, #2
 744 01a0 03D8     		bhi	.L37
 958:Middlewares/ST/STM32_USB_Host_Library/Core/Src/usbh_ctlreq.c ****         phost->RequestState = CMD_SEND;
ARM GAS  C:\Users\Acer\AppData\Local\Temp\cc74HznB.s 			page 34


 745              		.loc 1 958 9 is_stmt 1 view .LVU261
 958:Middlewares/ST/STM32_USB_Host_Library/Core/Src/usbh_ctlreq.c ****         phost->RequestState = CMD_SEND;
 746              		.loc 1 958 30 is_stmt 0 view .LVU262
 747 01a2 0125     		movs	r5, #1
 748 01a4 0576     		strb	r5, [r0, #24]
 959:Middlewares/ST/STM32_USB_Host_Library/Core/Src/usbh_ctlreq.c ****       }
 749              		.loc 1 959 9 is_stmt 1 view .LVU263
 959:Middlewares/ST/STM32_USB_Host_Library/Core/Src/usbh_ctlreq.c ****       }
 750              		.loc 1 959 29 is_stmt 0 view .LVU264
 751 01a6 8570     		strb	r5, [r0, #2]
 752 01a8 41E7     		b	.L11
 753              	.L37:
 963:Middlewares/ST/STM32_USB_Host_Library/Core/Src/usbh_ctlreq.c ****         phost->Control.errorcount = 0U;
 754              		.loc 1 963 9 is_stmt 1 view .LVU265
 963:Middlewares/ST/STM32_USB_Host_Library/Core/Src/usbh_ctlreq.c ****         phost->Control.errorcount = 0U;
 755              		.loc 1 963 14 is_stmt 0 view .LVU266
 756 01aa D0F8D433 		ldr	r3, [r0, #980]
 963:Middlewares/ST/STM32_USB_Host_Library/Core/Src/usbh_ctlreq.c ****         phost->Control.errorcount = 0U;
 757              		.loc 1 963 9 view .LVU267
 758 01ae 0621     		movs	r1, #6
 759 01b0 9847     		blx	r3
 760              	.LVL55:
 964:Middlewares/ST/STM32_USB_Host_Library/Core/Src/usbh_ctlreq.c ****         USBH_ErrLog("Control error: Device not responding");
 761              		.loc 1 964 9 is_stmt 1 view .LVU268
 964:Middlewares/ST/STM32_USB_Host_Library/Core/Src/usbh_ctlreq.c ****         USBH_ErrLog("Control error: Device not responding");
 762              		.loc 1 964 35 is_stmt 0 view .LVU269
 763 01b2 0025     		movs	r5, #0
 764 01b4 6576     		strb	r5, [r4, #25]
 965:Middlewares/ST/STM32_USB_Host_Library/Core/Src/usbh_ctlreq.c **** 
 765              		.loc 1 965 9 is_stmt 1 view .LVU270
 965:Middlewares/ST/STM32_USB_Host_Library/Core/Src/usbh_ctlreq.c **** 
 766              		.loc 1 965 9 view .LVU271
 965:Middlewares/ST/STM32_USB_Host_Library/Core/Src/usbh_ctlreq.c **** 
 767              		.loc 1 965 9 view .LVU272
 968:Middlewares/ST/STM32_USB_Host_Library/Core/Src/usbh_ctlreq.c ****         USBH_FreePipe(phost, phost->Control.pipe_in);
 768              		.loc 1 968 9 view .LVU273
 769 01b6 6179     		ldrb	r1, [r4, #5]	@ zero_extendqisi2
 770 01b8 2046     		mov	r0, r4
 771 01ba FFF7FEFF 		bl	USBH_FreePipe
 772              	.LVL56:
 969:Middlewares/ST/STM32_USB_Host_Library/Core/Src/usbh_ctlreq.c **** 
 773              		.loc 1 969 9 view .LVU274
 774 01be 2179     		ldrb	r1, [r4, #4]	@ zero_extendqisi2
 775 01c0 2046     		mov	r0, r4
 776 01c2 FFF7FEFF 		bl	USBH_FreePipe
 777              	.LVL57:
 971:Middlewares/ST/STM32_USB_Host_Library/Core/Src/usbh_ctlreq.c ****         status = USBH_FAIL;
 778              		.loc 1 971 9 view .LVU275
 971:Middlewares/ST/STM32_USB_Host_Library/Core/Src/usbh_ctlreq.c ****         status = USBH_FAIL;
 779              		.loc 1 971 23 is_stmt 0 view .LVU276
 780 01c6 2570     		strb	r5, [r4]
 972:Middlewares/ST/STM32_USB_Host_Library/Core/Src/usbh_ctlreq.c ****       }
 781              		.loc 1 972 9 is_stmt 1 view .LVU277
 782              	.LVL58:
 972:Middlewares/ST/STM32_USB_Host_Library/Core/Src/usbh_ctlreq.c ****       }
 783              		.loc 1 972 16 is_stmt 0 view .LVU278
 784 01c8 0225     		movs	r5, #2
ARM GAS  C:\Users\Acer\AppData\Local\Temp\cc74HznB.s 			page 35


 785 01ca 30E7     		b	.L11
 786              	.LVL59:
 787              	.L38:
 617:Middlewares/ST/STM32_USB_Host_Library/Core/Src/usbh_ctlreq.c ****   {
 788              		.loc 1 617 3 view .LVU279
 789 01cc 0125     		movs	r5, #1
 790 01ce 2EE7     		b	.L11
 791              	.LVL60:
 792              	.L40:
 724:Middlewares/ST/STM32_USB_Host_Library/Core/Src/usbh_ctlreq.c **** 
 793              		.loc 1 724 16 view .LVU280
 794 01d0 0325     		movs	r5, #3
 795 01d2 2CE7     		b	.L11
 796              	.L43:
 878:Middlewares/ST/STM32_USB_Host_Library/Core/Src/usbh_ctlreq.c **** 
 797              		.loc 1 878 18 view .LVU281
 798 01d4 0325     		movs	r5, #3
 799 01d6 2AE7     		b	.L11
 800              		.cfi_endproc
 801              	.LFE149:
 803              		.section	.text.USBH_GetNextDesc,"ax",%progbits
 804              		.align	1
 805              		.global	USBH_GetNextDesc
 806              		.syntax unified
 807              		.thumb
 808              		.thumb_func
 810              	USBH_GetNextDesc:
 811              	.LVL61:
 812              	.LFB147:
 524:Middlewares/ST/STM32_USB_Host_Library/Core/Src/usbh_ctlreq.c ****   USBH_DescHeader_t  *pnext;
 813              		.loc 1 524 1 is_stmt 1 view -0
 814              		.cfi_startproc
 815              		@ args = 0, pretend = 0, frame = 0
 816              		@ frame_needed = 0, uses_anonymous_args = 0
 817              		@ link register save eliminated.
 525:Middlewares/ST/STM32_USB_Host_Library/Core/Src/usbh_ctlreq.c **** 
 818              		.loc 1 525 3 view .LVU283
 527:Middlewares/ST/STM32_USB_Host_Library/Core/Src/usbh_ctlreq.c ****   pnext = (USBH_DescHeader_t *)(void *)((uint8_t *)(void *)pbuf + \
 819              		.loc 1 527 3 view .LVU284
 527:Middlewares/ST/STM32_USB_Host_Library/Core/Src/usbh_ctlreq.c ****   pnext = (USBH_DescHeader_t *)(void *)((uint8_t *)(void *)pbuf + \
 820              		.loc 1 527 46 is_stmt 0 view .LVU285
 821 0000 0378     		ldrb	r3, [r0]	@ zero_extendqisi2
 527:Middlewares/ST/STM32_USB_Host_Library/Core/Src/usbh_ctlreq.c ****   pnext = (USBH_DescHeader_t *)(void *)((uint8_t *)(void *)pbuf + \
 822              		.loc 1 527 8 view .LVU286
 823 0002 0A88     		ldrh	r2, [r1]
 824 0004 1344     		add	r3, r3, r2
 825 0006 0B80     		strh	r3, [r1]	@ movhi
 528:Middlewares/ST/STM32_USB_Host_Library/Core/Src/usbh_ctlreq.c ****                                         ((USBH_DescHeader_t *)(void *)pbuf)->bLength);
 826              		.loc 1 528 3 is_stmt 1 view .LVU287
 529:Middlewares/ST/STM32_USB_Host_Library/Core/Src/usbh_ctlreq.c **** 
 827              		.loc 1 529 76 is_stmt 0 view .LVU288
 828 0008 0378     		ldrb	r3, [r0]	@ zero_extendqisi2
 829              	.LVL62:
 531:Middlewares/ST/STM32_USB_Host_Library/Core/Src/usbh_ctlreq.c **** }
 830              		.loc 1 531 3 is_stmt 1 view .LVU289
 532:Middlewares/ST/STM32_USB_Host_Library/Core/Src/usbh_ctlreq.c **** 
 831              		.loc 1 532 1 is_stmt 0 view .LVU290
ARM GAS  C:\Users\Acer\AppData\Local\Temp\cc74HznB.s 			page 36


 832 000a 1844     		add	r0, r0, r3
 833              	.LVL63:
 532:Middlewares/ST/STM32_USB_Host_Library/Core/Src/usbh_ctlreq.c **** 
 834              		.loc 1 532 1 view .LVU291
 835 000c 7047     		bx	lr
 836              		.cfi_endproc
 837              	.LFE147:
 839              		.section	.text.USBH_ParseCfgDesc,"ax",%progbits
 840              		.align	1
 841              		.syntax unified
 842              		.thumb
 843              		.thumb_func
 845              	USBH_ParseCfgDesc:
 846              	.LVL64:
 847              	.LFB143:
 382:Middlewares/ST/STM32_USB_Host_Library/Core/Src/usbh_ctlreq.c ****   USBH_InterfaceDescTypeDef    *pif ;
 848              		.loc 1 382 1 is_stmt 1 view -0
 849              		.cfi_startproc
 850              		@ args = 0, pretend = 0, frame = 8
 851              		@ frame_needed = 0, uses_anonymous_args = 0
 382:Middlewares/ST/STM32_USB_Host_Library/Core/Src/usbh_ctlreq.c ****   USBH_InterfaceDescTypeDef    *pif ;
 852              		.loc 1 382 1 is_stmt 0 view .LVU293
 853 0000 2DE9F041 		push	{r4, r5, r6, r7, r8, lr}
 854              	.LCFI4:
 855              		.cfi_def_cfa_offset 24
 856              		.cfi_offset 4, -24
 857              		.cfi_offset 5, -20
 858              		.cfi_offset 6, -16
 859              		.cfi_offset 7, -12
 860              		.cfi_offset 8, -8
 861              		.cfi_offset 14, -4
 862 0004 82B0     		sub	sp, sp, #8
 863              	.LCFI5:
 864              		.cfi_def_cfa_offset 32
 865 0006 0C46     		mov	r4, r1
 383:Middlewares/ST/STM32_USB_Host_Library/Core/Src/usbh_ctlreq.c ****   USBH_EpDescTypeDef           *pep;
 866              		.loc 1 383 3 is_stmt 1 view .LVU294
 384:Middlewares/ST/STM32_USB_Host_Library/Core/Src/usbh_ctlreq.c ****   USBH_DescHeader_t            *pdesc = (USBH_DescHeader_t *)(void *)buf;
 867              		.loc 1 384 3 view .LVU295
 385:Middlewares/ST/STM32_USB_Host_Library/Core/Src/usbh_ctlreq.c ****   uint16_t                     ptr;
 868              		.loc 1 385 3 view .LVU296
 869              	.LVL65:
 386:Middlewares/ST/STM32_USB_Host_Library/Core/Src/usbh_ctlreq.c ****   uint8_t                      if_ix = 0U;
 870              		.loc 1 386 3 view .LVU297
 387:Middlewares/ST/STM32_USB_Host_Library/Core/Src/usbh_ctlreq.c ****   uint8_t                      ep_ix = 0U;
 871              		.loc 1 387 3 view .LVU298
 388:Middlewares/ST/STM32_USB_Host_Library/Core/Src/usbh_ctlreq.c **** 
 872              		.loc 1 388 3 view .LVU299
 390:Middlewares/ST/STM32_USB_Host_Library/Core/Src/usbh_ctlreq.c **** 
 873              		.loc 1 390 3 view .LVU300
 393:Middlewares/ST/STM32_USB_Host_Library/Core/Src/usbh_ctlreq.c ****   cfg_desc->bDescriptorType     = *(uint8_t *)(buf + 1);
 874              		.loc 1 393 3 view .LVU301
 393:Middlewares/ST/STM32_USB_Host_Library/Core/Src/usbh_ctlreq.c ****   cfg_desc->bDescriptorType     = *(uint8_t *)(buf + 1);
 875              		.loc 1 393 35 is_stmt 0 view .LVU302
 876 0008 0B78     		ldrb	r3, [r1]	@ zero_extendqisi2
 393:Middlewares/ST/STM32_USB_Host_Library/Core/Src/usbh_ctlreq.c ****   cfg_desc->bDescriptorType     = *(uint8_t *)(buf + 1);
 877              		.loc 1 393 33 view .LVU303
ARM GAS  C:\Users\Acer\AppData\Local\Temp\cc74HznB.s 			page 37


 878 000a 0370     		strb	r3, [r0]
 394:Middlewares/ST/STM32_USB_Host_Library/Core/Src/usbh_ctlreq.c ****   cfg_desc->wTotalLength        = LE16(buf + 2);
 879              		.loc 1 394 3 is_stmt 1 view .LVU304
 394:Middlewares/ST/STM32_USB_Host_Library/Core/Src/usbh_ctlreq.c ****   cfg_desc->wTotalLength        = LE16(buf + 2);
 880              		.loc 1 394 33 is_stmt 0 view .LVU305
 881 000c 4B78     		ldrb	r3, [r1, #1]	@ zero_extendqisi2
 882 000e 4370     		strb	r3, [r0, #1]
 395:Middlewares/ST/STM32_USB_Host_Library/Core/Src/usbh_ctlreq.c ****   cfg_desc->bNumInterfaces      = *(uint8_t *)(buf + 4);
 883              		.loc 1 395 3 is_stmt 1 view .LVU306
 395:Middlewares/ST/STM32_USB_Host_Library/Core/Src/usbh_ctlreq.c ****   cfg_desc->bNumInterfaces      = *(uint8_t *)(buf + 4);
 884              		.loc 1 395 35 is_stmt 0 view .LVU307
 885 0010 8B78     		ldrb	r3, [r1, #2]	@ zero_extendqisi2
 886 0012 C978     		ldrb	r1, [r1, #3]	@ zero_extendqisi2
 887              	.LVL66:
 395:Middlewares/ST/STM32_USB_Host_Library/Core/Src/usbh_ctlreq.c ****   cfg_desc->bNumInterfaces      = *(uint8_t *)(buf + 4);
 888              		.loc 1 395 35 view .LVU308
 889 0014 43EA0123 		orr	r3, r3, r1, lsl #8
 395:Middlewares/ST/STM32_USB_Host_Library/Core/Src/usbh_ctlreq.c ****   cfg_desc->bNumInterfaces      = *(uint8_t *)(buf + 4);
 890              		.loc 1 395 33 view .LVU309
 891 0018 4380     		strh	r3, [r0, #2]	@ movhi
 396:Middlewares/ST/STM32_USB_Host_Library/Core/Src/usbh_ctlreq.c ****   cfg_desc->bConfigurationValue = *(uint8_t *)(buf + 5);
 892              		.loc 1 396 3 is_stmt 1 view .LVU310
 396:Middlewares/ST/STM32_USB_Host_Library/Core/Src/usbh_ctlreq.c ****   cfg_desc->bConfigurationValue = *(uint8_t *)(buf + 5);
 893              		.loc 1 396 33 is_stmt 0 view .LVU311
 894 001a 2379     		ldrb	r3, [r4, #4]	@ zero_extendqisi2
 895 001c 0371     		strb	r3, [r0, #4]
 397:Middlewares/ST/STM32_USB_Host_Library/Core/Src/usbh_ctlreq.c ****   cfg_desc->iConfiguration      = *(uint8_t *)(buf + 6);
 896              		.loc 1 397 3 is_stmt 1 view .LVU312
 397:Middlewares/ST/STM32_USB_Host_Library/Core/Src/usbh_ctlreq.c ****   cfg_desc->iConfiguration      = *(uint8_t *)(buf + 6);
 897              		.loc 1 397 33 is_stmt 0 view .LVU313
 898 001e 6379     		ldrb	r3, [r4, #5]	@ zero_extendqisi2
 899 0020 4371     		strb	r3, [r0, #5]
 398:Middlewares/ST/STM32_USB_Host_Library/Core/Src/usbh_ctlreq.c ****   cfg_desc->bmAttributes        = *(uint8_t *)(buf + 7);
 900              		.loc 1 398 3 is_stmt 1 view .LVU314
 398:Middlewares/ST/STM32_USB_Host_Library/Core/Src/usbh_ctlreq.c ****   cfg_desc->bmAttributes        = *(uint8_t *)(buf + 7);
 901              		.loc 1 398 33 is_stmt 0 view .LVU315
 902 0022 A379     		ldrb	r3, [r4, #6]	@ zero_extendqisi2
 903 0024 8371     		strb	r3, [r0, #6]
 399:Middlewares/ST/STM32_USB_Host_Library/Core/Src/usbh_ctlreq.c ****   cfg_desc->bMaxPower           = *(uint8_t *)(buf + 8);
 904              		.loc 1 399 3 is_stmt 1 view .LVU316
 399:Middlewares/ST/STM32_USB_Host_Library/Core/Src/usbh_ctlreq.c ****   cfg_desc->bMaxPower           = *(uint8_t *)(buf + 8);
 905              		.loc 1 399 33 is_stmt 0 view .LVU317
 906 0026 E379     		ldrb	r3, [r4, #7]	@ zero_extendqisi2
 907 0028 C371     		strb	r3, [r0, #7]
 400:Middlewares/ST/STM32_USB_Host_Library/Core/Src/usbh_ctlreq.c **** 
 908              		.loc 1 400 3 is_stmt 1 view .LVU318
 400:Middlewares/ST/STM32_USB_Host_Library/Core/Src/usbh_ctlreq.c **** 
 909              		.loc 1 400 33 is_stmt 0 view .LVU319
 910 002a 237A     		ldrb	r3, [r4, #8]	@ zero_extendqisi2
 911 002c 0372     		strb	r3, [r0, #8]
 402:Middlewares/ST/STM32_USB_Host_Library/Core/Src/usbh_ctlreq.c ****   {
 912              		.loc 1 402 3 is_stmt 1 view .LVU320
 402:Middlewares/ST/STM32_USB_Host_Library/Core/Src/usbh_ctlreq.c ****   {
 913              		.loc 1 402 6 is_stmt 0 view .LVU321
 914 002e 092A     		cmp	r2, #9
 915 0030 44D9     		bls	.L61
 916 0032 0546     		mov	r5, r0
ARM GAS  C:\Users\Acer\AppData\Local\Temp\cc74HznB.s 			page 38


 404:Middlewares/ST/STM32_USB_Host_Library/Core/Src/usbh_ctlreq.c ****     pif = (USBH_InterfaceDescTypeDef *)0;
 917              		.loc 1 404 5 is_stmt 1 view .LVU322
 404:Middlewares/ST/STM32_USB_Host_Library/Core/Src/usbh_ctlreq.c ****     pif = (USBH_InterfaceDescTypeDef *)0;
 918              		.loc 1 404 9 is_stmt 0 view .LVU323
 919 0034 0923     		movs	r3, #9
 920 0036 ADF80630 		strh	r3, [sp, #6]	@ movhi
 405:Middlewares/ST/STM32_USB_Host_Library/Core/Src/usbh_ctlreq.c **** 
 921              		.loc 1 405 5 is_stmt 1 view .LVU324
 922              	.LVL67:
 407:Middlewares/ST/STM32_USB_Host_Library/Core/Src/usbh_ctlreq.c ****     {
 923              		.loc 1 407 5 view .LVU325
 387:Middlewares/ST/STM32_USB_Host_Library/Core/Src/usbh_ctlreq.c ****   uint8_t                      ep_ix = 0U;
 924              		.loc 1 387 32 is_stmt 0 view .LVU326
 925 003a 0026     		movs	r6, #0
 926              	.LVL68:
 927              	.L64:
 407:Middlewares/ST/STM32_USB_Host_Library/Core/Src/usbh_ctlreq.c ****     {
 928              		.loc 1 407 11 is_stmt 1 view .LVU327
 929 003c 012E     		cmp	r6, #1
 930 003e 3DD8     		bhi	.L61
 407:Middlewares/ST/STM32_USB_Host_Library/Core/Src/usbh_ctlreq.c ****     {
 931              		.loc 1 407 64 is_stmt 0 discriminator 1 view .LVU328
 932 0040 6A88     		ldrh	r2, [r5, #2]
 407:Middlewares/ST/STM32_USB_Host_Library/Core/Src/usbh_ctlreq.c ****     {
 933              		.loc 1 407 54 discriminator 1 view .LVU329
 934 0042 BDF80630 		ldrh	r3, [sp, #6]
 407:Middlewares/ST/STM32_USB_Host_Library/Core/Src/usbh_ctlreq.c ****     {
 935              		.loc 1 407 46 discriminator 1 view .LVU330
 936 0046 9A42     		cmp	r2, r3
 937 0048 38D9     		bls	.L61
 409:Middlewares/ST/STM32_USB_Host_Library/Core/Src/usbh_ctlreq.c ****       if (pdesc->bDescriptorType   == USB_DESC_TYPE_INTERFACE)
 938              		.loc 1 409 7 is_stmt 1 view .LVU331
 409:Middlewares/ST/STM32_USB_Host_Library/Core/Src/usbh_ctlreq.c ****       if (pdesc->bDescriptorType   == USB_DESC_TYPE_INTERFACE)
 939              		.loc 1 409 15 is_stmt 0 view .LVU332
 940 004a 0DF10601 		add	r1, sp, #6
 941 004e 2046     		mov	r0, r4
 942 0050 FFF7FEFF 		bl	USBH_GetNextDesc
 943              	.LVL69:
 944 0054 0446     		mov	r4, r0
 945              	.LVL70:
 410:Middlewares/ST/STM32_USB_Host_Library/Core/Src/usbh_ctlreq.c ****       {
 946              		.loc 1 410 7 is_stmt 1 view .LVU333
 410:Middlewares/ST/STM32_USB_Host_Library/Core/Src/usbh_ctlreq.c ****       {
 947              		.loc 1 410 16 is_stmt 0 view .LVU334
 948 0056 4378     		ldrb	r3, [r0, #1]	@ zero_extendqisi2
 410:Middlewares/ST/STM32_USB_Host_Library/Core/Src/usbh_ctlreq.c ****       {
 949              		.loc 1 410 10 view .LVU335
 950 0058 042B     		cmp	r3, #4
 951 005a EFD1     		bne	.L64
 412:Middlewares/ST/STM32_USB_Host_Library/Core/Src/usbh_ctlreq.c ****         USBH_ParseInterfaceDesc(pif, (uint8_t *)(void *)pdesc);
 952              		.loc 1 412 9 is_stmt 1 view .LVU336
 412:Middlewares/ST/STM32_USB_Host_Library/Core/Src/usbh_ctlreq.c ****         USBH_ParseInterfaceDesc(pif, (uint8_t *)(void *)pdesc);
 953              		.loc 1 412 34 is_stmt 0 view .LVU337
 954 005c B046     		mov	r8, r6
 412:Middlewares/ST/STM32_USB_Host_Library/Core/Src/usbh_ctlreq.c ****         USBH_ParseInterfaceDesc(pif, (uint8_t *)(void *)pdesc);
 955              		.loc 1 412 13 view .LVU338
 956 005e 1A20     		movs	r0, #26
ARM GAS  C:\Users\Acer\AppData\Local\Temp\cc74HznB.s 			page 39


 957              	.LVL71:
 412:Middlewares/ST/STM32_USB_Host_Library/Core/Src/usbh_ctlreq.c ****         USBH_ParseInterfaceDesc(pif, (uint8_t *)(void *)pdesc);
 958              		.loc 1 412 13 view .LVU339
 959 0060 06FB00F0 		mul	r0, r6, r0
 960 0064 0830     		adds	r0, r0, #8
 961 0066 2844     		add	r0, r0, r5
 962              	.LVL72:
 413:Middlewares/ST/STM32_USB_Host_Library/Core/Src/usbh_ctlreq.c **** 
 963              		.loc 1 413 9 is_stmt 1 view .LVU340
 964 0068 2146     		mov	r1, r4
 965 006a 0230     		adds	r0, r0, #2
 966              	.LVL73:
 413:Middlewares/ST/STM32_USB_Host_Library/Core/Src/usbh_ctlreq.c **** 
 967              		.loc 1 413 9 is_stmt 0 view .LVU341
 968 006c FFF7FEFF 		bl	USBH_ParseInterfaceDesc
 969              	.LVL74:
 415:Middlewares/ST/STM32_USB_Host_Library/Core/Src/usbh_ctlreq.c ****         pep = (USBH_EpDescTypeDef *)0;
 970              		.loc 1 415 9 is_stmt 1 view .LVU342
 416:Middlewares/ST/STM32_USB_Host_Library/Core/Src/usbh_ctlreq.c ****         while ((ep_ix < pif->bNumEndpoints) && (ptr < cfg_desc->wTotalLength))
 971              		.loc 1 416 9 view .LVU343
 417:Middlewares/ST/STM32_USB_Host_Library/Core/Src/usbh_ctlreq.c ****         {
 972              		.loc 1 417 9 view .LVU344
 415:Middlewares/ST/STM32_USB_Host_Library/Core/Src/usbh_ctlreq.c ****         pep = (USBH_EpDescTypeDef *)0;
 973              		.loc 1 415 15 is_stmt 0 view .LVU345
 974 0070 0027     		movs	r7, #0
 975              	.LVL75:
 976              	.L65:
 417:Middlewares/ST/STM32_USB_Host_Library/Core/Src/usbh_ctlreq.c ****         {
 977              		.loc 1 417 15 is_stmt 1 view .LVU346
 417:Middlewares/ST/STM32_USB_Host_Library/Core/Src/usbh_ctlreq.c ****         {
 978              		.loc 1 417 28 is_stmt 0 view .LVU347
 979 0072 1A23     		movs	r3, #26
 980              	.LVL76:
 417:Middlewares/ST/STM32_USB_Host_Library/Core/Src/usbh_ctlreq.c ****         {
 981              		.loc 1 417 28 view .LVU348
 982 0074 03FB0853 		mla	r3, r3, r8, r5
 983              	.LVL77:
 417:Middlewares/ST/STM32_USB_Host_Library/Core/Src/usbh_ctlreq.c ****         {
 984              		.loc 1 417 28 view .LVU349
 985 0078 9B7B     		ldrb	r3, [r3, #14]	@ zero_extendqisi2
 417:Middlewares/ST/STM32_USB_Host_Library/Core/Src/usbh_ctlreq.c ****         {
 986              		.loc 1 417 15 view .LVU350
 987 007a BB42     		cmp	r3, r7
 988 007c 1BD9     		bls	.L67
 417:Middlewares/ST/STM32_USB_Host_Library/Core/Src/usbh_ctlreq.c ****         {
 989              		.loc 1 417 63 discriminator 1 view .LVU351
 990 007e 6A88     		ldrh	r2, [r5, #2]
 417:Middlewares/ST/STM32_USB_Host_Library/Core/Src/usbh_ctlreq.c ****         {
 991              		.loc 1 417 53 discriminator 1 view .LVU352
 992 0080 BDF80630 		ldrh	r3, [sp, #6]
 417:Middlewares/ST/STM32_USB_Host_Library/Core/Src/usbh_ctlreq.c ****         {
 993              		.loc 1 417 45 discriminator 1 view .LVU353
 994 0084 9A42     		cmp	r2, r3
 995 0086 16D9     		bls	.L67
 419:Middlewares/ST/STM32_USB_Host_Library/Core/Src/usbh_ctlreq.c ****           if (pdesc->bDescriptorType   == USB_DESC_TYPE_ENDPOINT)
 996              		.loc 1 419 11 is_stmt 1 view .LVU354
 419:Middlewares/ST/STM32_USB_Host_Library/Core/Src/usbh_ctlreq.c ****           if (pdesc->bDescriptorType   == USB_DESC_TYPE_ENDPOINT)
ARM GAS  C:\Users\Acer\AppData\Local\Temp\cc74HznB.s 			page 40


 997              		.loc 1 419 19 is_stmt 0 view .LVU355
 998 0088 0DF10601 		add	r1, sp, #6
 999 008c 2046     		mov	r0, r4
 1000 008e FFF7FEFF 		bl	USBH_GetNextDesc
 1001              	.LVL78:
 1002 0092 0446     		mov	r4, r0
 1003              	.LVL79:
 420:Middlewares/ST/STM32_USB_Host_Library/Core/Src/usbh_ctlreq.c ****           {
 1004              		.loc 1 420 11 is_stmt 1 view .LVU356
 420:Middlewares/ST/STM32_USB_Host_Library/Core/Src/usbh_ctlreq.c ****           {
 1005              		.loc 1 420 20 is_stmt 0 view .LVU357
 1006 0094 4378     		ldrb	r3, [r0, #1]	@ zero_extendqisi2
 420:Middlewares/ST/STM32_USB_Host_Library/Core/Src/usbh_ctlreq.c ****           {
 1007              		.loc 1 420 14 view .LVU358
 1008 0096 052B     		cmp	r3, #5
 1009 0098 EBD1     		bne	.L65
 422:Middlewares/ST/STM32_USB_Host_Library/Core/Src/usbh_ctlreq.c ****             USBH_ParseEPDesc(pep, (uint8_t *)(void *)pdesc);
 1010              		.loc 1 422 13 is_stmt 1 view .LVU359
 422:Middlewares/ST/STM32_USB_Host_Library/Core/Src/usbh_ctlreq.c ****             USBH_ParseEPDesc(pep, (uint8_t *)(void *)pdesc);
 1011              		.loc 1 422 17 is_stmt 0 view .LVU360
 1012 009a 0137     		adds	r7, r7, #1
 1013              	.LVL80:
 422:Middlewares/ST/STM32_USB_Host_Library/Core/Src/usbh_ctlreq.c ****             USBH_ParseEPDesc(pep, (uint8_t *)(void *)pdesc);
 1014              		.loc 1 422 17 view .LVU361
 1015 009c 1A20     		movs	r0, #26
 1016              	.LVL81:
 422:Middlewares/ST/STM32_USB_Host_Library/Core/Src/usbh_ctlreq.c ****             USBH_ParseEPDesc(pep, (uint8_t *)(void *)pdesc);
 1017              		.loc 1 422 17 view .LVU362
 1018 009e 00FB08F0 		mul	r0, r0, r8
 1019              	.LVL82:
 422:Middlewares/ST/STM32_USB_Host_Library/Core/Src/usbh_ctlreq.c ****             USBH_ParseEPDesc(pep, (uint8_t *)(void *)pdesc);
 1020              		.loc 1 422 17 view .LVU363
 1021 00a2 00EBC700 		add	r0, r0, r7, lsl #3
 1022 00a6 0830     		adds	r0, r0, #8
 1023 00a8 2844     		add	r0, r0, r5
 1024              	.LVL83:
 423:Middlewares/ST/STM32_USB_Host_Library/Core/Src/usbh_ctlreq.c ****             ep_ix++;
 1025              		.loc 1 423 13 is_stmt 1 view .LVU364
 1026 00aa 2146     		mov	r1, r4
 1027 00ac 0430     		adds	r0, r0, #4
 1028              	.LVL84:
 423:Middlewares/ST/STM32_USB_Host_Library/Core/Src/usbh_ctlreq.c ****             ep_ix++;
 1029              		.loc 1 423 13 is_stmt 0 view .LVU365
 1030 00ae FFF7FEFF 		bl	USBH_ParseEPDesc
 1031              	.LVL85:
 424:Middlewares/ST/STM32_USB_Host_Library/Core/Src/usbh_ctlreq.c ****           }
 1032              		.loc 1 424 13 is_stmt 1 view .LVU366
 424:Middlewares/ST/STM32_USB_Host_Library/Core/Src/usbh_ctlreq.c ****           }
 1033              		.loc 1 424 18 is_stmt 0 view .LVU367
 1034 00b2 FFB2     		uxtb	r7, r7
 1035              	.LVL86:
 424:Middlewares/ST/STM32_USB_Host_Library/Core/Src/usbh_ctlreq.c ****           }
 1036              		.loc 1 424 18 view .LVU368
 1037 00b4 DDE7     		b	.L65
 1038              	.L67:
 427:Middlewares/ST/STM32_USB_Host_Library/Core/Src/usbh_ctlreq.c ****       }
 1039              		.loc 1 427 9 is_stmt 1 view .LVU369
ARM GAS  C:\Users\Acer\AppData\Local\Temp\cc74HznB.s 			page 41


 427:Middlewares/ST/STM32_USB_Host_Library/Core/Src/usbh_ctlreq.c ****       }
 1040              		.loc 1 427 14 is_stmt 0 view .LVU370
 1041 00b6 0136     		adds	r6, r6, #1
 1042              	.LVL87:
 427:Middlewares/ST/STM32_USB_Host_Library/Core/Src/usbh_ctlreq.c ****       }
 1043              		.loc 1 427 14 view .LVU371
 1044 00b8 F6B2     		uxtb	r6, r6
 1045              	.LVL88:
 427:Middlewares/ST/STM32_USB_Host_Library/Core/Src/usbh_ctlreq.c ****       }
 1046              		.loc 1 427 14 view .LVU372
 1047 00ba BFE7     		b	.L64
 1048              	.LVL89:
 1049              	.L61:
 431:Middlewares/ST/STM32_USB_Host_Library/Core/Src/usbh_ctlreq.c **** 
 1050              		.loc 1 431 1 view .LVU373
 1051 00bc 02B0     		add	sp, sp, #8
 1052              	.LCFI6:
 1053              		.cfi_def_cfa_offset 24
 1054              		@ sp needed
 1055 00be BDE8F081 		pop	{r4, r5, r6, r7, r8, pc}
 431:Middlewares/ST/STM32_USB_Host_Library/Core/Src/usbh_ctlreq.c **** 
 1056              		.loc 1 431 1 view .LVU374
 1057              		.cfi_endproc
 1058              	.LFE143:
 1060              		.section	.text.USBH_CtlReq,"ax",%progbits
 1061              		.align	1
 1062              		.global	USBH_CtlReq
 1063              		.syntax unified
 1064              		.thumb
 1065              		.thumb_func
 1067              	USBH_CtlReq:
 1068              	.LVL90:
 1069              	.LFB148:
 547:Middlewares/ST/STM32_USB_Host_Library/Core/Src/usbh_ctlreq.c ****   USBH_StatusTypeDef status;
 1070              		.loc 1 547 1 is_stmt 1 view -0
 1071              		.cfi_startproc
 1072              		@ args = 0, pretend = 0, frame = 0
 1073              		@ frame_needed = 0, uses_anonymous_args = 0
 547:Middlewares/ST/STM32_USB_Host_Library/Core/Src/usbh_ctlreq.c ****   USBH_StatusTypeDef status;
 1074              		.loc 1 547 1 is_stmt 0 view .LVU376
 1075 0000 10B5     		push	{r4, lr}
 1076              	.LCFI7:
 1077              		.cfi_def_cfa_offset 8
 1078              		.cfi_offset 4, -8
 1079              		.cfi_offset 14, -4
 1080 0002 0446     		mov	r4, r0
 548:Middlewares/ST/STM32_USB_Host_Library/Core/Src/usbh_ctlreq.c ****   status = USBH_BUSY;
 1081              		.loc 1 548 3 is_stmt 1 view .LVU377
 549:Middlewares/ST/STM32_USB_Host_Library/Core/Src/usbh_ctlreq.c **** 
 1082              		.loc 1 549 3 view .LVU378
 1083              	.LVL91:
 551:Middlewares/ST/STM32_USB_Host_Library/Core/Src/usbh_ctlreq.c ****   {
 1084              		.loc 1 551 3 view .LVU379
 551:Middlewares/ST/STM32_USB_Host_Library/Core/Src/usbh_ctlreq.c ****   {
 1085              		.loc 1 551 16 is_stmt 0 view .LVU380
 1086 0004 8078     		ldrb	r0, [r0, #2]	@ zero_extendqisi2
 1087              	.LVL92:
ARM GAS  C:\Users\Acer\AppData\Local\Temp\cc74HznB.s 			page 42


 551:Middlewares/ST/STM32_USB_Host_Library/Core/Src/usbh_ctlreq.c ****   {
 1088              		.loc 1 551 3 view .LVU381
 1089 0006 0128     		cmp	r0, #1
 1090 0008 03D0     		beq	.L72
 1091 000a 0228     		cmp	r0, #2
 1092 000c 08D0     		beq	.L73
 1093 000e 0120     		movs	r0, #1
 1094              	.LVL93:
 1095              	.L74:
 601:Middlewares/ST/STM32_USB_Host_Library/Core/Src/usbh_ctlreq.c **** }
 1096              		.loc 1 601 3 is_stmt 1 view .LVU382
 602:Middlewares/ST/STM32_USB_Host_Library/Core/Src/usbh_ctlreq.c **** 
 1097              		.loc 1 602 1 is_stmt 0 view .LVU383
 1098 0010 10BD     		pop	{r4, pc}
 1099              	.LVL94:
 1100              	.L72:
 555:Middlewares/ST/STM32_USB_Host_Library/Core/Src/usbh_ctlreq.c ****       phost->Control.length = length;
 1101              		.loc 1 555 7 is_stmt 1 view .LVU384
 555:Middlewares/ST/STM32_USB_Host_Library/Core/Src/usbh_ctlreq.c ****       phost->Control.length = length;
 1102              		.loc 1 555 27 is_stmt 0 view .LVU385
 1103 0012 A160     		str	r1, [r4, #8]
 556:Middlewares/ST/STM32_USB_Host_Library/Core/Src/usbh_ctlreq.c ****       phost->Control.state = CTRL_SETUP;
 1104              		.loc 1 556 7 is_stmt 1 view .LVU386
 556:Middlewares/ST/STM32_USB_Host_Library/Core/Src/usbh_ctlreq.c ****       phost->Control.state = CTRL_SETUP;
 1105              		.loc 1 556 29 is_stmt 0 view .LVU387
 1106 0014 A281     		strh	r2, [r4, #12]	@ movhi
 557:Middlewares/ST/STM32_USB_Host_Library/Core/Src/usbh_ctlreq.c ****       phost->RequestState = CMD_WAIT;
 1107              		.loc 1 557 7 is_stmt 1 view .LVU388
 557:Middlewares/ST/STM32_USB_Host_Library/Core/Src/usbh_ctlreq.c ****       phost->RequestState = CMD_WAIT;
 1108              		.loc 1 557 28 is_stmt 0 view .LVU389
 1109 0016 0123     		movs	r3, #1
 1110 0018 2376     		strb	r3, [r4, #24]
 558:Middlewares/ST/STM32_USB_Host_Library/Core/Src/usbh_ctlreq.c ****       status = USBH_BUSY;
 1111              		.loc 1 558 7 is_stmt 1 view .LVU390
 558:Middlewares/ST/STM32_USB_Host_Library/Core/Src/usbh_ctlreq.c ****       status = USBH_BUSY;
 1112              		.loc 1 558 27 is_stmt 0 view .LVU391
 1113 001a 0223     		movs	r3, #2
 1114 001c A370     		strb	r3, [r4, #2]
 559:Middlewares/ST/STM32_USB_Host_Library/Core/Src/usbh_ctlreq.c **** 
 1115              		.loc 1 559 7 is_stmt 1 view .LVU392
 569:Middlewares/ST/STM32_USB_Host_Library/Core/Src/usbh_ctlreq.c **** 
 1116              		.loc 1 569 7 view .LVU393
 1117 001e F7E7     		b	.L74
 1118              	.L73:
 572:Middlewares/ST/STM32_USB_Host_Library/Core/Src/usbh_ctlreq.c ****       if ((status == USBH_OK) || (status == USBH_NOT_SUPPORTED))
 1119              		.loc 1 572 7 view .LVU394
 572:Middlewares/ST/STM32_USB_Host_Library/Core/Src/usbh_ctlreq.c ****       if ((status == USBH_OK) || (status == USBH_NOT_SUPPORTED))
 1120              		.loc 1 572 16 is_stmt 0 view .LVU395
 1121 0020 2046     		mov	r0, r4
 1122 0022 FFF7FEFF 		bl	USBH_HandleControl
 1123              	.LVL95:
 573:Middlewares/ST/STM32_USB_Host_Library/Core/Src/usbh_ctlreq.c ****       {
 1124              		.loc 1 573 7 is_stmt 1 view .LVU396
 573:Middlewares/ST/STM32_USB_Host_Library/Core/Src/usbh_ctlreq.c ****       {
 1125              		.loc 1 573 10 is_stmt 0 view .LVU397
 1126 0026 30B1     		cbz	r0, .L75
 573:Middlewares/ST/STM32_USB_Host_Library/Core/Src/usbh_ctlreq.c ****       {
ARM GAS  C:\Users\Acer\AppData\Local\Temp\cc74HznB.s 			page 43


 1127              		.loc 1 573 31 discriminator 1 view .LVU398
 1128 0028 0328     		cmp	r0, #3
 1129 002a 04D0     		beq	.L75
 579:Middlewares/ST/STM32_USB_Host_Library/Core/Src/usbh_ctlreq.c ****       {
 1130              		.loc 1 579 12 is_stmt 1 view .LVU399
 579:Middlewares/ST/STM32_USB_Host_Library/Core/Src/usbh_ctlreq.c ****       {
 1131              		.loc 1 579 15 is_stmt 0 view .LVU400
 1132 002c 0228     		cmp	r0, #2
 1133 002e EFD1     		bne	.L74
 582:Middlewares/ST/STM32_USB_Host_Library/Core/Src/usbh_ctlreq.c ****       }
 1134              		.loc 1 582 9 is_stmt 1 view .LVU401
 582:Middlewares/ST/STM32_USB_Host_Library/Core/Src/usbh_ctlreq.c ****       }
 1135              		.loc 1 582 29 is_stmt 0 view .LVU402
 1136 0030 0123     		movs	r3, #1
 1137 0032 A370     		strb	r3, [r4, #2]
 1138 0034 ECE7     		b	.L74
 1139              	.L75:
 576:Middlewares/ST/STM32_USB_Host_Library/Core/Src/usbh_ctlreq.c ****         phost->Control.state = CTRL_IDLE;
 1140              		.loc 1 576 9 is_stmt 1 view .LVU403
 576:Middlewares/ST/STM32_USB_Host_Library/Core/Src/usbh_ctlreq.c ****         phost->Control.state = CTRL_IDLE;
 1141              		.loc 1 576 29 is_stmt 0 view .LVU404
 1142 0036 0123     		movs	r3, #1
 1143 0038 A370     		strb	r3, [r4, #2]
 577:Middlewares/ST/STM32_USB_Host_Library/Core/Src/usbh_ctlreq.c ****       }
 1144              		.loc 1 577 9 is_stmt 1 view .LVU405
 577:Middlewares/ST/STM32_USB_Host_Library/Core/Src/usbh_ctlreq.c ****       }
 1145              		.loc 1 577 30 is_stmt 0 view .LVU406
 1146 003a 0023     		movs	r3, #0
 1147 003c 2376     		strb	r3, [r4, #24]
 1148 003e E7E7     		b	.L74
 1149              		.cfi_endproc
 1150              	.LFE148:
 1152              		.section	.text.USBH_GetDescriptor,"ax",%progbits
 1153              		.align	1
 1154              		.global	USBH_GetDescriptor
 1155              		.syntax unified
 1156              		.thumb
 1157              		.thumb_func
 1159              	USBH_GetDescriptor:
 1160              	.LVL96:
 1161              	.LFB136:
 193:Middlewares/ST/STM32_USB_Host_Library/Core/Src/usbh_ctlreq.c ****   if (phost->RequestState == CMD_SEND)
 1162              		.loc 1 193 1 is_stmt 1 view -0
 1163              		.cfi_startproc
 1164              		@ args = 4, pretend = 0, frame = 0
 1165              		@ frame_needed = 0, uses_anonymous_args = 0
 193:Middlewares/ST/STM32_USB_Host_Library/Core/Src/usbh_ctlreq.c ****   if (phost->RequestState == CMD_SEND)
 1166              		.loc 1 193 1 is_stmt 0 view .LVU408
 1167 0000 08B5     		push	{r3, lr}
 1168              	.LCFI8:
 1169              		.cfi_def_cfa_offset 8
 1170              		.cfi_offset 3, -8
 1171              		.cfi_offset 14, -4
 1172 0002 8E46     		mov	lr, r1
 1173 0004 9446     		mov	ip, r2
 1174 0006 1946     		mov	r1, r3
 1175              	.LVL97:
ARM GAS  C:\Users\Acer\AppData\Local\Temp\cc74HznB.s 			page 44


 193:Middlewares/ST/STM32_USB_Host_Library/Core/Src/usbh_ctlreq.c ****   if (phost->RequestState == CMD_SEND)
 1176              		.loc 1 193 1 view .LVU409
 1177 0008 BDF80820 		ldrh	r2, [sp, #8]
 1178              	.LVL98:
 194:Middlewares/ST/STM32_USB_Host_Library/Core/Src/usbh_ctlreq.c ****   {
 1179              		.loc 1 194 3 is_stmt 1 view .LVU410
 194:Middlewares/ST/STM32_USB_Host_Library/Core/Src/usbh_ctlreq.c ****   {
 1180              		.loc 1 194 12 is_stmt 0 view .LVU411
 1181 000c 8378     		ldrb	r3, [r0, #2]	@ zero_extendqisi2
 1182              	.LVL99:
 194:Middlewares/ST/STM32_USB_Host_Library/Core/Src/usbh_ctlreq.c ****   {
 1183              		.loc 1 194 6 view .LVU412
 1184 000e 012B     		cmp	r3, #1
 1185 0010 02D0     		beq	.L83
 1186              	.L79:
 211:Middlewares/ST/STM32_USB_Host_Library/Core/Src/usbh_ctlreq.c **** }
 1187              		.loc 1 211 3 is_stmt 1 view .LVU413
 211:Middlewares/ST/STM32_USB_Host_Library/Core/Src/usbh_ctlreq.c **** }
 1188              		.loc 1 211 10 is_stmt 0 view .LVU414
 1189 0012 FFF7FEFF 		bl	USBH_CtlReq
 1190              	.LVL100:
 212:Middlewares/ST/STM32_USB_Host_Library/Core/Src/usbh_ctlreq.c **** 
 1191              		.loc 1 212 1 view .LVU415
 1192 0016 08BD     		pop	{r3, pc}
 1193              	.LVL101:
 1194              	.L83:
 196:Middlewares/ST/STM32_USB_Host_Library/Core/Src/usbh_ctlreq.c ****     phost->Control.setup.b.bRequest = USB_REQ_GET_DESCRIPTOR;
 1195              		.loc 1 196 5 is_stmt 1 view .LVU416
 196:Middlewares/ST/STM32_USB_Host_Library/Core/Src/usbh_ctlreq.c ****     phost->Control.setup.b.bRequest = USB_REQ_GET_DESCRIPTOR;
 1196              		.loc 1 196 42 is_stmt 0 view .LVU417
 1197 0018 6EF07F0E 		orn	lr, lr, #127
 1198 001c 80F810E0 		strb	lr, [r0, #16]
 197:Middlewares/ST/STM32_USB_Host_Library/Core/Src/usbh_ctlreq.c ****     phost->Control.setup.b.wValue.w = value_idx;
 1199              		.loc 1 197 5 is_stmt 1 view .LVU418
 197:Middlewares/ST/STM32_USB_Host_Library/Core/Src/usbh_ctlreq.c ****     phost->Control.setup.b.wValue.w = value_idx;
 1200              		.loc 1 197 37 is_stmt 0 view .LVU419
 1201 0020 0623     		movs	r3, #6
 1202 0022 4374     		strb	r3, [r0, #17]
 198:Middlewares/ST/STM32_USB_Host_Library/Core/Src/usbh_ctlreq.c **** 
 1203              		.loc 1 198 5 is_stmt 1 view .LVU420
 198:Middlewares/ST/STM32_USB_Host_Library/Core/Src/usbh_ctlreq.c **** 
 1204              		.loc 1 198 37 is_stmt 0 view .LVU421
 1205 0024 A0F812C0 		strh	ip, [r0, #18]	@ movhi
 200:Middlewares/ST/STM32_USB_Host_Library/Core/Src/usbh_ctlreq.c ****     {
 1206              		.loc 1 200 5 is_stmt 1 view .LVU422
 200:Middlewares/ST/STM32_USB_Host_Library/Core/Src/usbh_ctlreq.c ****     {
 1207              		.loc 1 200 8 is_stmt 0 view .LVU423
 1208 0028 0CF47F4C 		and	ip, ip, #65280
 1209 002c BCF5407F 		cmp	ip, #768
 1210 0030 03D0     		beq	.L84
 206:Middlewares/ST/STM32_USB_Host_Library/Core/Src/usbh_ctlreq.c ****     }
 1211              		.loc 1 206 7 is_stmt 1 view .LVU424
 206:Middlewares/ST/STM32_USB_Host_Library/Core/Src/usbh_ctlreq.c ****     }
 1212              		.loc 1 206 39 is_stmt 0 view .LVU425
 1213 0032 0023     		movs	r3, #0
 1214 0034 8382     		strh	r3, [r0, #20]	@ movhi
 1215              	.L81:
ARM GAS  C:\Users\Acer\AppData\Local\Temp\cc74HznB.s 			page 45


 208:Middlewares/ST/STM32_USB_Host_Library/Core/Src/usbh_ctlreq.c ****   }
 1216              		.loc 1 208 5 is_stmt 1 view .LVU426
 208:Middlewares/ST/STM32_USB_Host_Library/Core/Src/usbh_ctlreq.c ****   }
 1217              		.loc 1 208 38 is_stmt 0 view .LVU427
 1218 0036 C282     		strh	r2, [r0, #22]	@ movhi
 1219 0038 EBE7     		b	.L79
 1220              	.L84:
 202:Middlewares/ST/STM32_USB_Host_Library/Core/Src/usbh_ctlreq.c ****     }
 1221              		.loc 1 202 7 is_stmt 1 view .LVU428
 202:Middlewares/ST/STM32_USB_Host_Library/Core/Src/usbh_ctlreq.c ****     }
 1222              		.loc 1 202 39 is_stmt 0 view .LVU429
 1223 003a 40F20943 		movw	r3, #1033
 1224 003e 8382     		strh	r3, [r0, #20]	@ movhi
 1225 0040 F9E7     		b	.L81
 1226              		.cfi_endproc
 1227              	.LFE136:
 1229              		.section	.text.USBH_Get_DevDesc,"ax",%progbits
 1230              		.align	1
 1231              		.global	USBH_Get_DevDesc
 1232              		.syntax unified
 1233              		.thumb
 1234              		.thumb_func
 1236              	USBH_Get_DevDesc:
 1237              	.LVL102:
 1238              	.LFB133:
 104:Middlewares/ST/STM32_USB_Host_Library/Core/Src/usbh_ctlreq.c ****   USBH_StatusTypeDef status;
 1239              		.loc 1 104 1 is_stmt 1 view -0
 1240              		.cfi_startproc
 1241              		@ args = 0, pretend = 0, frame = 0
 1242              		@ frame_needed = 0, uses_anonymous_args = 0
 104:Middlewares/ST/STM32_USB_Host_Library/Core/Src/usbh_ctlreq.c ****   USBH_StatusTypeDef status;
 1243              		.loc 1 104 1 is_stmt 0 view .LVU431
 1244 0000 F0B5     		push	{r4, r5, r6, r7, lr}
 1245              	.LCFI9:
 1246              		.cfi_def_cfa_offset 20
 1247              		.cfi_offset 4, -20
 1248              		.cfi_offset 5, -16
 1249              		.cfi_offset 6, -12
 1250              		.cfi_offset 7, -8
 1251              		.cfi_offset 14, -4
 1252 0002 83B0     		sub	sp, sp, #12
 1253              	.LCFI10:
 1254              		.cfi_def_cfa_offset 32
 1255 0004 0446     		mov	r4, r0
 105:Middlewares/ST/STM32_USB_Host_Library/Core/Src/usbh_ctlreq.c **** 
 1256              		.loc 1 105 3 is_stmt 1 view .LVU432
 107:Middlewares/ST/STM32_USB_Host_Library/Core/Src/usbh_ctlreq.c ****                                    USB_REQ_RECIPIENT_DEVICE | USB_REQ_TYPE_STANDARD,
 1257              		.loc 1 107 3 view .LVU433
 109:Middlewares/ST/STM32_USB_Host_Library/Core/Src/usbh_ctlreq.c ****                                    (uint16_t)length)) == USBH_OK)
 1258              		.loc 1 109 66 is_stmt 0 view .LVU434
 1259 0006 00F58E76 		add	r6, r0, #284
 107:Middlewares/ST/STM32_USB_Host_Library/Core/Src/usbh_ctlreq.c ****                                    USB_REQ_RECIPIENT_DEVICE | USB_REQ_TYPE_STANDARD,
 1260              		.loc 1 107 17 view .LVU435
 1261 000a 0D46     		mov	r5, r1
 1262 000c 0091     		str	r1, [sp]
 1263 000e 3346     		mov	r3, r6
 1264 0010 4FF48072 		mov	r2, #256
ARM GAS  C:\Users\Acer\AppData\Local\Temp\cc74HznB.s 			page 46


 1265 0014 0021     		movs	r1, #0
 1266              	.LVL103:
 107:Middlewares/ST/STM32_USB_Host_Library/Core/Src/usbh_ctlreq.c ****                                    USB_REQ_RECIPIENT_DEVICE | USB_REQ_TYPE_STANDARD,
 1267              		.loc 1 107 17 view .LVU436
 1268 0016 FFF7FEFF 		bl	USBH_GetDescriptor
 1269              	.LVL104:
 107:Middlewares/ST/STM32_USB_Host_Library/Core/Src/usbh_ctlreq.c ****                                    USB_REQ_RECIPIENT_DEVICE | USB_REQ_TYPE_STANDARD,
 1270              		.loc 1 107 6 view .LVU437
 1271 001a 0746     		mov	r7, r0
 1272 001c 10B1     		cbz	r0, .L88
 1273              	.LVL105:
 1274              	.L86:
 117:Middlewares/ST/STM32_USB_Host_Library/Core/Src/usbh_ctlreq.c **** }
 1275              		.loc 1 117 3 is_stmt 1 view .LVU438
 118:Middlewares/ST/STM32_USB_Host_Library/Core/Src/usbh_ctlreq.c **** 
 1276              		.loc 1 118 1 is_stmt 0 view .LVU439
 1277 001e 3846     		mov	r0, r7
 1278 0020 03B0     		add	sp, sp, #12
 1279              	.LCFI11:
 1280              		.cfi_remember_state
 1281              		.cfi_def_cfa_offset 20
 1282              		@ sp needed
 1283 0022 F0BD     		pop	{r4, r5, r6, r7, pc}
 1284              	.LVL106:
 1285              	.L88:
 1286              	.LCFI12:
 1287              		.cfi_restore_state
 113:Middlewares/ST/STM32_USB_Host_Library/Core/Src/usbh_ctlreq.c ****                       (uint16_t)length);
 1288              		.loc 1 113 5 is_stmt 1 view .LVU440
 1289 0024 2A46     		mov	r2, r5
 1290 0026 3146     		mov	r1, r6
 1291 0028 04F22630 		addw	r0, r4, #806
 1292              	.LVL107:
 113:Middlewares/ST/STM32_USB_Host_Library/Core/Src/usbh_ctlreq.c ****                       (uint16_t)length);
 1293              		.loc 1 113 5 is_stmt 0 view .LVU441
 1294 002c FFF7FEFF 		bl	USBH_ParseDevDesc
 1295              	.LVL108:
 1296 0030 F5E7     		b	.L86
 1297              		.cfi_endproc
 1298              	.LFE133:
 1300              		.section	.text.USBH_Get_CfgDesc,"ax",%progbits
 1301              		.align	1
 1302              		.global	USBH_Get_CfgDesc
 1303              		.syntax unified
 1304              		.thumb
 1305              		.thumb_func
 1307              	USBH_Get_CfgDesc:
 1308              	.LVL109:
 1309              	.LFB134:
 133:Middlewares/ST/STM32_USB_Host_Library/Core/Src/usbh_ctlreq.c ****   USBH_StatusTypeDef status;
 1310              		.loc 1 133 1 is_stmt 1 view -0
 1311              		.cfi_startproc
 1312              		@ args = 0, pretend = 0, frame = 0
 1313              		@ frame_needed = 0, uses_anonymous_args = 0
 133:Middlewares/ST/STM32_USB_Host_Library/Core/Src/usbh_ctlreq.c ****   USBH_StatusTypeDef status;
 1314              		.loc 1 133 1 is_stmt 0 view .LVU443
 1315 0000 F0B5     		push	{r4, r5, r6, r7, lr}
ARM GAS  C:\Users\Acer\AppData\Local\Temp\cc74HznB.s 			page 47


 1316              	.LCFI13:
 1317              		.cfi_def_cfa_offset 20
 1318              		.cfi_offset 4, -20
 1319              		.cfi_offset 5, -16
 1320              		.cfi_offset 6, -12
 1321              		.cfi_offset 7, -8
 1322              		.cfi_offset 14, -4
 1323 0002 83B0     		sub	sp, sp, #12
 1324              	.LCFI14:
 1325              		.cfi_def_cfa_offset 32
 1326 0004 0446     		mov	r4, r0
 1327 0006 0D46     		mov	r5, r1
 134:Middlewares/ST/STM32_USB_Host_Library/Core/Src/usbh_ctlreq.c ****   uint8_t *pData = phost->device.CfgDesc_Raw;;
 1328              		.loc 1 134 3 is_stmt 1 view .LVU444
 135:Middlewares/ST/STM32_USB_Host_Library/Core/Src/usbh_ctlreq.c **** 
 1329              		.loc 1 135 3 view .LVU445
 135:Middlewares/ST/STM32_USB_Host_Library/Core/Src/usbh_ctlreq.c **** 
 1330              		.loc 1 135 12 is_stmt 0 view .LVU446
 1331 0008 00F11C06 		add	r6, r0, #28
 1332              	.LVL110:
 135:Middlewares/ST/STM32_USB_Host_Library/Core/Src/usbh_ctlreq.c **** 
 1333              		.loc 1 135 46 is_stmt 1 view .LVU447
 137:Middlewares/ST/STM32_USB_Host_Library/Core/Src/usbh_ctlreq.c ****                                    USB_DESC_CONFIGURATION, pData, length)) == USBH_OK)
 1334              		.loc 1 137 3 view .LVU448
 137:Middlewares/ST/STM32_USB_Host_Library/Core/Src/usbh_ctlreq.c ****                                    USB_DESC_CONFIGURATION, pData, length)) == USBH_OK)
 1335              		.loc 1 137 17 is_stmt 0 view .LVU449
 1336 000c 0091     		str	r1, [sp]
 1337 000e 3346     		mov	r3, r6
 1338 0010 4FF40072 		mov	r2, #512
 1339 0014 0021     		movs	r1, #0
 1340              	.LVL111:
 137:Middlewares/ST/STM32_USB_Host_Library/Core/Src/usbh_ctlreq.c ****                                    USB_DESC_CONFIGURATION, pData, length)) == USBH_OK)
 1341              		.loc 1 137 17 view .LVU450
 1342 0016 FFF7FEFF 		bl	USBH_GetDescriptor
 1343              	.LVL112:
 137:Middlewares/ST/STM32_USB_Host_Library/Core/Src/usbh_ctlreq.c ****                                    USB_DESC_CONFIGURATION, pData, length)) == USBH_OK)
 1344              		.loc 1 137 6 view .LVU451
 1345 001a 0746     		mov	r7, r0
 1346 001c 10B1     		cbz	r0, .L92
 1347              	.LVL113:
 1348              	.L90:
 144:Middlewares/ST/STM32_USB_Host_Library/Core/Src/usbh_ctlreq.c **** }
 1349              		.loc 1 144 3 is_stmt 1 view .LVU452
 145:Middlewares/ST/STM32_USB_Host_Library/Core/Src/usbh_ctlreq.c **** 
 1350              		.loc 1 145 1 is_stmt 0 view .LVU453
 1351 001e 3846     		mov	r0, r7
 1352 0020 03B0     		add	sp, sp, #12
 1353              	.LCFI15:
 1354              		.cfi_remember_state
 1355              		.cfi_def_cfa_offset 20
 1356              		@ sp needed
 1357 0022 F0BD     		pop	{r4, r5, r6, r7, pc}
 1358              	.LVL114:
 1359              	.L92:
 1360              	.LCFI16:
 1361              		.cfi_restore_state
 141:Middlewares/ST/STM32_USB_Host_Library/Core/Src/usbh_ctlreq.c ****   }
ARM GAS  C:\Users\Acer\AppData\Local\Temp\cc74HznB.s 			page 48


 1362              		.loc 1 141 5 is_stmt 1 view .LVU454
 1363 0024 2A46     		mov	r2, r5
 1364 0026 3146     		mov	r1, r6
 1365 0028 04F54E70 		add	r0, r4, #824
 1366              	.LVL115:
 141:Middlewares/ST/STM32_USB_Host_Library/Core/Src/usbh_ctlreq.c ****   }
 1367              		.loc 1 141 5 is_stmt 0 view .LVU455
 1368 002c FFF7FEFF 		bl	USBH_ParseCfgDesc
 1369              	.LVL116:
 1370 0030 F5E7     		b	.L90
 1371              		.cfi_endproc
 1372              	.LFE134:
 1374              		.section	.text.USBH_Get_StringDesc,"ax",%progbits
 1375              		.align	1
 1376              		.global	USBH_Get_StringDesc
 1377              		.syntax unified
 1378              		.thumb
 1379              		.thumb_func
 1381              	USBH_Get_StringDesc:
 1382              	.LVL117:
 1383              	.LFB135:
 161:Middlewares/ST/STM32_USB_Host_Library/Core/Src/usbh_ctlreq.c ****   USBH_StatusTypeDef status;
 1384              		.loc 1 161 1 is_stmt 1 view -0
 1385              		.cfi_startproc
 1386              		@ args = 0, pretend = 0, frame = 0
 1387              		@ frame_needed = 0, uses_anonymous_args = 0
 161:Middlewares/ST/STM32_USB_Host_Library/Core/Src/usbh_ctlreq.c ****   USBH_StatusTypeDef status;
 1388              		.loc 1 161 1 is_stmt 0 view .LVU457
 1389 0000 F0B5     		push	{r4, r5, r6, r7, lr}
 1390              	.LCFI17:
 1391              		.cfi_def_cfa_offset 20
 1392              		.cfi_offset 4, -20
 1393              		.cfi_offset 5, -16
 1394              		.cfi_offset 6, -12
 1395              		.cfi_offset 7, -8
 1396              		.cfi_offset 14, -4
 1397 0002 83B0     		sub	sp, sp, #12
 1398              	.LCFI18:
 1399              		.cfi_def_cfa_offset 32
 1400 0004 1646     		mov	r6, r2
 1401 0006 1D46     		mov	r5, r3
 162:Middlewares/ST/STM32_USB_Host_Library/Core/Src/usbh_ctlreq.c **** 
 1402              		.loc 1 162 3 is_stmt 1 view .LVU458
 164:Middlewares/ST/STM32_USB_Host_Library/Core/Src/usbh_ctlreq.c ****                                    USB_REQ_RECIPIENT_DEVICE | USB_REQ_TYPE_STANDARD,
 1403              		.loc 1 164 3 view .LVU459
 167:Middlewares/ST/STM32_USB_Host_Library/Core/Src/usbh_ctlreq.c ****   {
 1404              		.loc 1 167 49 is_stmt 0 view .LVU460
 1405 0008 00F58E74 		add	r4, r0, #284
 164:Middlewares/ST/STM32_USB_Host_Library/Core/Src/usbh_ctlreq.c ****                                    USB_REQ_RECIPIENT_DEVICE | USB_REQ_TYPE_STANDARD,
 1406              		.loc 1 164 17 view .LVU461
 1407 000c 0093     		str	r3, [sp]
 1408 000e 2346     		mov	r3, r4
 1409              	.LVL118:
 164:Middlewares/ST/STM32_USB_Host_Library/Core/Src/usbh_ctlreq.c ****                                    USB_REQ_RECIPIENT_DEVICE | USB_REQ_TYPE_STANDARD,
 1410              		.loc 1 164 17 view .LVU462
 1411 0010 41F44072 		orr	r2, r1, #768
 1412              	.LVL119:
ARM GAS  C:\Users\Acer\AppData\Local\Temp\cc74HznB.s 			page 49


 164:Middlewares/ST/STM32_USB_Host_Library/Core/Src/usbh_ctlreq.c ****                                    USB_REQ_RECIPIENT_DEVICE | USB_REQ_TYPE_STANDARD,
 1413              		.loc 1 164 17 view .LVU463
 1414 0014 0021     		movs	r1, #0
 1415              	.LVL120:
 164:Middlewares/ST/STM32_USB_Host_Library/Core/Src/usbh_ctlreq.c ****                                    USB_REQ_RECIPIENT_DEVICE | USB_REQ_TYPE_STANDARD,
 1416              		.loc 1 164 17 view .LVU464
 1417 0016 FFF7FEFF 		bl	USBH_GetDescriptor
 1418              	.LVL121:
 164:Middlewares/ST/STM32_USB_Host_Library/Core/Src/usbh_ctlreq.c ****                                    USB_REQ_RECIPIENT_DEVICE | USB_REQ_TYPE_STANDARD,
 1419              		.loc 1 164 6 view .LVU465
 1420 001a 0746     		mov	r7, r0
 1421 001c 10B1     		cbz	r0, .L96
 1422              	.LVL122:
 1423              	.L94:
 173:Middlewares/ST/STM32_USB_Host_Library/Core/Src/usbh_ctlreq.c **** }
 1424              		.loc 1 173 3 is_stmt 1 view .LVU466
 174:Middlewares/ST/STM32_USB_Host_Library/Core/Src/usbh_ctlreq.c **** 
 1425              		.loc 1 174 1 is_stmt 0 view .LVU467
 1426 001e 3846     		mov	r0, r7
 1427 0020 03B0     		add	sp, sp, #12
 1428              	.LCFI19:
 1429              		.cfi_remember_state
 1430              		.cfi_def_cfa_offset 20
 1431              		@ sp needed
 1432 0022 F0BD     		pop	{r4, r5, r6, r7, pc}
 1433              	.LVL123:
 1434              	.L96:
 1435              	.LCFI20:
 1436              		.cfi_restore_state
 170:Middlewares/ST/STM32_USB_Host_Library/Core/Src/usbh_ctlreq.c ****   }
 1437              		.loc 1 170 5 is_stmt 1 view .LVU468
 1438 0024 2A46     		mov	r2, r5
 1439 0026 3146     		mov	r1, r6
 1440 0028 2046     		mov	r0, r4
 1441              	.LVL124:
 170:Middlewares/ST/STM32_USB_Host_Library/Core/Src/usbh_ctlreq.c ****   }
 1442              		.loc 1 170 5 is_stmt 0 view .LVU469
 1443 002a FFF7FEFF 		bl	USBH_ParseStringDesc
 1444              	.LVL125:
 1445 002e F6E7     		b	.L94
 1446              		.cfi_endproc
 1447              	.LFE135:
 1449              		.section	.text.USBH_SetAddress,"ax",%progbits
 1450              		.align	1
 1451              		.global	USBH_SetAddress
 1452              		.syntax unified
 1453              		.thumb
 1454              		.thumb_func
 1456              	USBH_SetAddress:
 1457              	.LVL126:
 1458              	.LFB137:
 224:Middlewares/ST/STM32_USB_Host_Library/Core/Src/usbh_ctlreq.c ****   if (phost->RequestState == CMD_SEND)
 1459              		.loc 1 224 1 is_stmt 1 view -0
 1460              		.cfi_startproc
 1461              		@ args = 0, pretend = 0, frame = 0
 1462              		@ frame_needed = 0, uses_anonymous_args = 0
 224:Middlewares/ST/STM32_USB_Host_Library/Core/Src/usbh_ctlreq.c ****   if (phost->RequestState == CMD_SEND)
ARM GAS  C:\Users\Acer\AppData\Local\Temp\cc74HznB.s 			page 50


 1463              		.loc 1 224 1 is_stmt 0 view .LVU471
 1464 0000 08B5     		push	{r3, lr}
 1465              	.LCFI21:
 1466              		.cfi_def_cfa_offset 8
 1467              		.cfi_offset 3, -8
 1468              		.cfi_offset 14, -4
 225:Middlewares/ST/STM32_USB_Host_Library/Core/Src/usbh_ctlreq.c ****   {
 1469              		.loc 1 225 3 is_stmt 1 view .LVU472
 225:Middlewares/ST/STM32_USB_Host_Library/Core/Src/usbh_ctlreq.c ****   {
 1470              		.loc 1 225 12 is_stmt 0 view .LVU473
 1471 0002 8378     		ldrb	r3, [r0, #2]	@ zero_extendqisi2
 225:Middlewares/ST/STM32_USB_Host_Library/Core/Src/usbh_ctlreq.c ****   {
 1472              		.loc 1 225 6 view .LVU474
 1473 0004 012B     		cmp	r3, #1
 1474 0006 04D0     		beq	.L100
 1475              	.L98:
 237:Middlewares/ST/STM32_USB_Host_Library/Core/Src/usbh_ctlreq.c **** }
 1476              		.loc 1 237 3 is_stmt 1 view .LVU475
 237:Middlewares/ST/STM32_USB_Host_Library/Core/Src/usbh_ctlreq.c **** }
 1477              		.loc 1 237 10 is_stmt 0 view .LVU476
 1478 0008 0022     		movs	r2, #0
 1479 000a 1146     		mov	r1, r2
 1480              	.LVL127:
 237:Middlewares/ST/STM32_USB_Host_Library/Core/Src/usbh_ctlreq.c **** }
 1481              		.loc 1 237 10 view .LVU477
 1482 000c FFF7FEFF 		bl	USBH_CtlReq
 1483              	.LVL128:
 238:Middlewares/ST/STM32_USB_Host_Library/Core/Src/usbh_ctlreq.c **** 
 1484              		.loc 1 238 1 view .LVU478
 1485 0010 08BD     		pop	{r3, pc}
 1486              	.LVL129:
 1487              	.L100:
 227:Middlewares/ST/STM32_USB_Host_Library/Core/Src/usbh_ctlreq.c ****                                            USB_REQ_TYPE_STANDARD;
 1488              		.loc 1 227 5 is_stmt 1 view .LVU479
 227:Middlewares/ST/STM32_USB_Host_Library/Core/Src/usbh_ctlreq.c ****                                            USB_REQ_TYPE_STANDARD;
 1489              		.loc 1 227 42 is_stmt 0 view .LVU480
 1490 0012 0023     		movs	r3, #0
 1491 0014 0374     		strb	r3, [r0, #16]
 230:Middlewares/ST/STM32_USB_Host_Library/Core/Src/usbh_ctlreq.c **** 
 1492              		.loc 1 230 5 is_stmt 1 view .LVU481
 230:Middlewares/ST/STM32_USB_Host_Library/Core/Src/usbh_ctlreq.c **** 
 1493              		.loc 1 230 37 is_stmt 0 view .LVU482
 1494 0016 0522     		movs	r2, #5
 1495 0018 4274     		strb	r2, [r0, #17]
 232:Middlewares/ST/STM32_USB_Host_Library/Core/Src/usbh_ctlreq.c ****     phost->Control.setup.b.wIndex.w = 0U;
 1496              		.loc 1 232 5 is_stmt 1 view .LVU483
 232:Middlewares/ST/STM32_USB_Host_Library/Core/Src/usbh_ctlreq.c ****     phost->Control.setup.b.wIndex.w = 0U;
 1497              		.loc 1 232 37 is_stmt 0 view .LVU484
 1498 001a 4182     		strh	r1, [r0, #18]	@ movhi
 233:Middlewares/ST/STM32_USB_Host_Library/Core/Src/usbh_ctlreq.c ****     phost->Control.setup.b.wLength.w = 0U;
 1499              		.loc 1 233 5 is_stmt 1 view .LVU485
 233:Middlewares/ST/STM32_USB_Host_Library/Core/Src/usbh_ctlreq.c ****     phost->Control.setup.b.wLength.w = 0U;
 1500              		.loc 1 233 37 is_stmt 0 view .LVU486
 1501 001c 8382     		strh	r3, [r0, #20]	@ movhi
 234:Middlewares/ST/STM32_USB_Host_Library/Core/Src/usbh_ctlreq.c ****   }
 1502              		.loc 1 234 5 is_stmt 1 view .LVU487
 234:Middlewares/ST/STM32_USB_Host_Library/Core/Src/usbh_ctlreq.c ****   }
ARM GAS  C:\Users\Acer\AppData\Local\Temp\cc74HznB.s 			page 51


 1503              		.loc 1 234 38 is_stmt 0 view .LVU488
 1504 001e C382     		strh	r3, [r0, #22]	@ movhi
 1505 0020 F2E7     		b	.L98
 1506              		.cfi_endproc
 1507              	.LFE137:
 1509              		.section	.text.USBH_SetCfg,"ax",%progbits
 1510              		.align	1
 1511              		.global	USBH_SetCfg
 1512              		.syntax unified
 1513              		.thumb
 1514              		.thumb_func
 1516              	USBH_SetCfg:
 1517              	.LVL130:
 1518              	.LFB138:
 249:Middlewares/ST/STM32_USB_Host_Library/Core/Src/usbh_ctlreq.c ****   if (phost->RequestState == CMD_SEND)
 1519              		.loc 1 249 1 is_stmt 1 view -0
 1520              		.cfi_startproc
 1521              		@ args = 0, pretend = 0, frame = 0
 1522              		@ frame_needed = 0, uses_anonymous_args = 0
 249:Middlewares/ST/STM32_USB_Host_Library/Core/Src/usbh_ctlreq.c ****   if (phost->RequestState == CMD_SEND)
 1523              		.loc 1 249 1 is_stmt 0 view .LVU490
 1524 0000 08B5     		push	{r3, lr}
 1525              	.LCFI22:
 1526              		.cfi_def_cfa_offset 8
 1527              		.cfi_offset 3, -8
 1528              		.cfi_offset 14, -4
 250:Middlewares/ST/STM32_USB_Host_Library/Core/Src/usbh_ctlreq.c ****   {
 1529              		.loc 1 250 3 is_stmt 1 view .LVU491
 250:Middlewares/ST/STM32_USB_Host_Library/Core/Src/usbh_ctlreq.c ****   {
 1530              		.loc 1 250 12 is_stmt 0 view .LVU492
 1531 0002 8378     		ldrb	r3, [r0, #2]	@ zero_extendqisi2
 250:Middlewares/ST/STM32_USB_Host_Library/Core/Src/usbh_ctlreq.c ****   {
 1532              		.loc 1 250 6 view .LVU493
 1533 0004 012B     		cmp	r3, #1
 1534 0006 04D0     		beq	.L104
 1535              	.L102:
 261:Middlewares/ST/STM32_USB_Host_Library/Core/Src/usbh_ctlreq.c **** }
 1536              		.loc 1 261 3 is_stmt 1 view .LVU494
 261:Middlewares/ST/STM32_USB_Host_Library/Core/Src/usbh_ctlreq.c **** }
 1537              		.loc 1 261 10 is_stmt 0 view .LVU495
 1538 0008 0022     		movs	r2, #0
 1539 000a 1146     		mov	r1, r2
 1540              	.LVL131:
 261:Middlewares/ST/STM32_USB_Host_Library/Core/Src/usbh_ctlreq.c **** }
 1541              		.loc 1 261 10 view .LVU496
 1542 000c FFF7FEFF 		bl	USBH_CtlReq
 1543              	.LVL132:
 262:Middlewares/ST/STM32_USB_Host_Library/Core/Src/usbh_ctlreq.c **** 
 1544              		.loc 1 262 1 view .LVU497
 1545 0010 08BD     		pop	{r3, pc}
 1546              	.LVL133:
 1547              	.L104:
 252:Middlewares/ST/STM32_USB_Host_Library/Core/Src/usbh_ctlreq.c ****                                            | USB_REQ_TYPE_STANDARD;
 1548              		.loc 1 252 5 is_stmt 1 view .LVU498
 252:Middlewares/ST/STM32_USB_Host_Library/Core/Src/usbh_ctlreq.c ****                                            | USB_REQ_TYPE_STANDARD;
 1549              		.loc 1 252 42 is_stmt 0 view .LVU499
 1550 0012 0023     		movs	r3, #0
ARM GAS  C:\Users\Acer\AppData\Local\Temp\cc74HznB.s 			page 52


 1551 0014 0374     		strb	r3, [r0, #16]
 255:Middlewares/ST/STM32_USB_Host_Library/Core/Src/usbh_ctlreq.c ****     phost->Control.setup.b.wValue.w = cfg_idx;
 1552              		.loc 1 255 5 is_stmt 1 view .LVU500
 255:Middlewares/ST/STM32_USB_Host_Library/Core/Src/usbh_ctlreq.c ****     phost->Control.setup.b.wValue.w = cfg_idx;
 1553              		.loc 1 255 37 is_stmt 0 view .LVU501
 1554 0016 0922     		movs	r2, #9
 1555 0018 4274     		strb	r2, [r0, #17]
 256:Middlewares/ST/STM32_USB_Host_Library/Core/Src/usbh_ctlreq.c ****     phost->Control.setup.b.wIndex.w = 0U;
 1556              		.loc 1 256 5 is_stmt 1 view .LVU502
 256:Middlewares/ST/STM32_USB_Host_Library/Core/Src/usbh_ctlreq.c ****     phost->Control.setup.b.wIndex.w = 0U;
 1557              		.loc 1 256 37 is_stmt 0 view .LVU503
 1558 001a 4182     		strh	r1, [r0, #18]	@ movhi
 257:Middlewares/ST/STM32_USB_Host_Library/Core/Src/usbh_ctlreq.c ****     phost->Control.setup.b.wLength.w = 0U;
 1559              		.loc 1 257 5 is_stmt 1 view .LVU504
 257:Middlewares/ST/STM32_USB_Host_Library/Core/Src/usbh_ctlreq.c ****     phost->Control.setup.b.wLength.w = 0U;
 1560              		.loc 1 257 37 is_stmt 0 view .LVU505
 1561 001c 8382     		strh	r3, [r0, #20]	@ movhi
 258:Middlewares/ST/STM32_USB_Host_Library/Core/Src/usbh_ctlreq.c ****   }
 1562              		.loc 1 258 5 is_stmt 1 view .LVU506
 258:Middlewares/ST/STM32_USB_Host_Library/Core/Src/usbh_ctlreq.c ****   }
 1563              		.loc 1 258 38 is_stmt 0 view .LVU507
 1564 001e C382     		strh	r3, [r0, #22]	@ movhi
 1565 0020 F2E7     		b	.L102
 1566              		.cfi_endproc
 1567              	.LFE138:
 1569              		.section	.text.USBH_SetInterface,"ax",%progbits
 1570              		.align	1
 1571              		.global	USBH_SetInterface
 1572              		.syntax unified
 1573              		.thumb
 1574              		.thumb_func
 1576              	USBH_SetInterface:
 1577              	.LVL134:
 1578              	.LFB139:
 274:Middlewares/ST/STM32_USB_Host_Library/Core/Src/usbh_ctlreq.c ****   if (phost->RequestState == CMD_SEND)
 1579              		.loc 1 274 1 is_stmt 1 view -0
 1580              		.cfi_startproc
 1581              		@ args = 0, pretend = 0, frame = 0
 1582              		@ frame_needed = 0, uses_anonymous_args = 0
 274:Middlewares/ST/STM32_USB_Host_Library/Core/Src/usbh_ctlreq.c ****   if (phost->RequestState == CMD_SEND)
 1583              		.loc 1 274 1 is_stmt 0 view .LVU509
 1584 0000 08B5     		push	{r3, lr}
 1585              	.LCFI23:
 1586              		.cfi_def_cfa_offset 8
 1587              		.cfi_offset 3, -8
 1588              		.cfi_offset 14, -4
 275:Middlewares/ST/STM32_USB_Host_Library/Core/Src/usbh_ctlreq.c ****   {
 1589              		.loc 1 275 3 is_stmt 1 view .LVU510
 275:Middlewares/ST/STM32_USB_Host_Library/Core/Src/usbh_ctlreq.c ****   {
 1590              		.loc 1 275 12 is_stmt 0 view .LVU511
 1591 0002 8378     		ldrb	r3, [r0, #2]	@ zero_extendqisi2
 275:Middlewares/ST/STM32_USB_Host_Library/Core/Src/usbh_ctlreq.c ****   {
 1592              		.loc 1 275 6 view .LVU512
 1593 0004 012B     		cmp	r3, #1
 1594 0006 04D0     		beq	.L108
 1595              	.L106:
 286:Middlewares/ST/STM32_USB_Host_Library/Core/Src/usbh_ctlreq.c **** }
ARM GAS  C:\Users\Acer\AppData\Local\Temp\cc74HznB.s 			page 53


 1596              		.loc 1 286 3 is_stmt 1 view .LVU513
 286:Middlewares/ST/STM32_USB_Host_Library/Core/Src/usbh_ctlreq.c **** }
 1597              		.loc 1 286 10 is_stmt 0 view .LVU514
 1598 0008 0022     		movs	r2, #0
 1599              	.LVL135:
 286:Middlewares/ST/STM32_USB_Host_Library/Core/Src/usbh_ctlreq.c **** }
 1600              		.loc 1 286 10 view .LVU515
 1601 000a 1146     		mov	r1, r2
 1602              	.LVL136:
 286:Middlewares/ST/STM32_USB_Host_Library/Core/Src/usbh_ctlreq.c **** }
 1603              		.loc 1 286 10 view .LVU516
 1604 000c FFF7FEFF 		bl	USBH_CtlReq
 1605              	.LVL137:
 287:Middlewares/ST/STM32_USB_Host_Library/Core/Src/usbh_ctlreq.c **** 
 1606              		.loc 1 287 1 view .LVU517
 1607 0010 08BD     		pop	{r3, pc}
 1608              	.LVL138:
 1609              	.L108:
 277:Middlewares/ST/STM32_USB_Host_Library/Core/Src/usbh_ctlreq.c ****                                            | USB_REQ_TYPE_STANDARD;
 1610              		.loc 1 277 5 is_stmt 1 view .LVU518
 277:Middlewares/ST/STM32_USB_Host_Library/Core/Src/usbh_ctlreq.c ****                                            | USB_REQ_TYPE_STANDARD;
 1611              		.loc 1 277 42 is_stmt 0 view .LVU519
 1612 0012 0374     		strb	r3, [r0, #16]
 280:Middlewares/ST/STM32_USB_Host_Library/Core/Src/usbh_ctlreq.c ****     phost->Control.setup.b.wValue.w = altSetting;
 1613              		.loc 1 280 5 is_stmt 1 view .LVU520
 280:Middlewares/ST/STM32_USB_Host_Library/Core/Src/usbh_ctlreq.c ****     phost->Control.setup.b.wValue.w = altSetting;
 1614              		.loc 1 280 37 is_stmt 0 view .LVU521
 1615 0014 0B23     		movs	r3, #11
 1616 0016 4374     		strb	r3, [r0, #17]
 281:Middlewares/ST/STM32_USB_Host_Library/Core/Src/usbh_ctlreq.c ****     phost->Control.setup.b.wIndex.w = ep_num;
 1617              		.loc 1 281 5 is_stmt 1 view .LVU522
 281:Middlewares/ST/STM32_USB_Host_Library/Core/Src/usbh_ctlreq.c ****     phost->Control.setup.b.wIndex.w = ep_num;
 1618              		.loc 1 281 37 is_stmt 0 view .LVU523
 1619 0018 4282     		strh	r2, [r0, #18]	@ movhi
 282:Middlewares/ST/STM32_USB_Host_Library/Core/Src/usbh_ctlreq.c ****     phost->Control.setup.b.wLength.w = 0U;
 1620              		.loc 1 282 5 is_stmt 1 view .LVU524
 282:Middlewares/ST/STM32_USB_Host_Library/Core/Src/usbh_ctlreq.c ****     phost->Control.setup.b.wLength.w = 0U;
 1621              		.loc 1 282 37 is_stmt 0 view .LVU525
 1622 001a 8182     		strh	r1, [r0, #20]	@ movhi
 283:Middlewares/ST/STM32_USB_Host_Library/Core/Src/usbh_ctlreq.c ****   }
 1623              		.loc 1 283 5 is_stmt 1 view .LVU526
 283:Middlewares/ST/STM32_USB_Host_Library/Core/Src/usbh_ctlreq.c ****   }
 1624              		.loc 1 283 38 is_stmt 0 view .LVU527
 1625 001c 0023     		movs	r3, #0
 1626 001e C382     		strh	r3, [r0, #22]	@ movhi
 1627 0020 F2E7     		b	.L106
 1628              		.cfi_endproc
 1629              	.LFE139:
 1631              		.section	.text.USBH_SetFeature,"ax",%progbits
 1632              		.align	1
 1633              		.global	USBH_SetFeature
 1634              		.syntax unified
 1635              		.thumb
 1636              		.thumb_func
 1638              	USBH_SetFeature:
 1639              	.LVL139:
 1640              	.LFB140:
ARM GAS  C:\Users\Acer\AppData\Local\Temp\cc74HznB.s 			page 54


 298:Middlewares/ST/STM32_USB_Host_Library/Core/Src/usbh_ctlreq.c ****   if (phost->RequestState == CMD_SEND)
 1641              		.loc 1 298 1 is_stmt 1 view -0
 1642              		.cfi_startproc
 1643              		@ args = 0, pretend = 0, frame = 0
 1644              		@ frame_needed = 0, uses_anonymous_args = 0
 298:Middlewares/ST/STM32_USB_Host_Library/Core/Src/usbh_ctlreq.c ****   if (phost->RequestState == CMD_SEND)
 1645              		.loc 1 298 1 is_stmt 0 view .LVU529
 1646 0000 08B5     		push	{r3, lr}
 1647              	.LCFI24:
 1648              		.cfi_def_cfa_offset 8
 1649              		.cfi_offset 3, -8
 1650              		.cfi_offset 14, -4
 299:Middlewares/ST/STM32_USB_Host_Library/Core/Src/usbh_ctlreq.c ****   {
 1651              		.loc 1 299 3 is_stmt 1 view .LVU530
 299:Middlewares/ST/STM32_USB_Host_Library/Core/Src/usbh_ctlreq.c ****   {
 1652              		.loc 1 299 12 is_stmt 0 view .LVU531
 1653 0002 8378     		ldrb	r3, [r0, #2]	@ zero_extendqisi2
 299:Middlewares/ST/STM32_USB_Host_Library/Core/Src/usbh_ctlreq.c ****   {
 1654              		.loc 1 299 6 view .LVU532
 1655 0004 012B     		cmp	r3, #1
 1656 0006 04D0     		beq	.L112
 1657              	.L110:
 310:Middlewares/ST/STM32_USB_Host_Library/Core/Src/usbh_ctlreq.c **** }
 1658              		.loc 1 310 3 is_stmt 1 view .LVU533
 310:Middlewares/ST/STM32_USB_Host_Library/Core/Src/usbh_ctlreq.c **** }
 1659              		.loc 1 310 10 is_stmt 0 view .LVU534
 1660 0008 0022     		movs	r2, #0
 1661 000a 1146     		mov	r1, r2
 1662              	.LVL140:
 310:Middlewares/ST/STM32_USB_Host_Library/Core/Src/usbh_ctlreq.c **** }
 1663              		.loc 1 310 10 view .LVU535
 1664 000c FFF7FEFF 		bl	USBH_CtlReq
 1665              	.LVL141:
 311:Middlewares/ST/STM32_USB_Host_Library/Core/Src/usbh_ctlreq.c **** 
 1666              		.loc 1 311 1 view .LVU536
 1667 0010 08BD     		pop	{r3, pc}
 1668              	.LVL142:
 1669              	.L112:
 301:Middlewares/ST/STM32_USB_Host_Library/Core/Src/usbh_ctlreq.c ****                                            | USB_REQ_TYPE_STANDARD;
 1670              		.loc 1 301 5 is_stmt 1 view .LVU537
 301:Middlewares/ST/STM32_USB_Host_Library/Core/Src/usbh_ctlreq.c ****                                            | USB_REQ_TYPE_STANDARD;
 1671              		.loc 1 301 42 is_stmt 0 view .LVU538
 1672 0012 0023     		movs	r3, #0
 1673 0014 0374     		strb	r3, [r0, #16]
 304:Middlewares/ST/STM32_USB_Host_Library/Core/Src/usbh_ctlreq.c ****     phost->Control.setup.b.wValue.w = wValue;
 1674              		.loc 1 304 5 is_stmt 1 view .LVU539
 304:Middlewares/ST/STM32_USB_Host_Library/Core/Src/usbh_ctlreq.c ****     phost->Control.setup.b.wValue.w = wValue;
 1675              		.loc 1 304 37 is_stmt 0 view .LVU540
 1676 0016 0322     		movs	r2, #3
 1677 0018 4274     		strb	r2, [r0, #17]
 305:Middlewares/ST/STM32_USB_Host_Library/Core/Src/usbh_ctlreq.c ****     phost->Control.setup.b.wIndex.w = 0U;
 1678              		.loc 1 305 5 is_stmt 1 view .LVU541
 305:Middlewares/ST/STM32_USB_Host_Library/Core/Src/usbh_ctlreq.c ****     phost->Control.setup.b.wIndex.w = 0U;
 1679              		.loc 1 305 37 is_stmt 0 view .LVU542
 1680 001a 4182     		strh	r1, [r0, #18]	@ movhi
 306:Middlewares/ST/STM32_USB_Host_Library/Core/Src/usbh_ctlreq.c ****     phost->Control.setup.b.wLength.w = 0U;
 1681              		.loc 1 306 5 is_stmt 1 view .LVU543
ARM GAS  C:\Users\Acer\AppData\Local\Temp\cc74HznB.s 			page 55


 306:Middlewares/ST/STM32_USB_Host_Library/Core/Src/usbh_ctlreq.c ****     phost->Control.setup.b.wLength.w = 0U;
 1682              		.loc 1 306 37 is_stmt 0 view .LVU544
 1683 001c 8382     		strh	r3, [r0, #20]	@ movhi
 307:Middlewares/ST/STM32_USB_Host_Library/Core/Src/usbh_ctlreq.c ****   }
 1684              		.loc 1 307 5 is_stmt 1 view .LVU545
 307:Middlewares/ST/STM32_USB_Host_Library/Core/Src/usbh_ctlreq.c ****   }
 1685              		.loc 1 307 38 is_stmt 0 view .LVU546
 1686 001e C382     		strh	r3, [r0, #22]	@ movhi
 1687 0020 F2E7     		b	.L110
 1688              		.cfi_endproc
 1689              	.LFE140:
 1691              		.section	.text.USBH_ClrFeature,"ax",%progbits
 1692              		.align	1
 1693              		.global	USBH_ClrFeature
 1694              		.syntax unified
 1695              		.thumb
 1696              		.thumb_func
 1698              	USBH_ClrFeature:
 1699              	.LVL143:
 1700              	.LFB141:
 323:Middlewares/ST/STM32_USB_Host_Library/Core/Src/usbh_ctlreq.c ****   if (phost->RequestState == CMD_SEND)
 1701              		.loc 1 323 1 is_stmt 1 view -0
 1702              		.cfi_startproc
 1703              		@ args = 0, pretend = 0, frame = 0
 1704              		@ frame_needed = 0, uses_anonymous_args = 0
 323:Middlewares/ST/STM32_USB_Host_Library/Core/Src/usbh_ctlreq.c ****   if (phost->RequestState == CMD_SEND)
 1705              		.loc 1 323 1 is_stmt 0 view .LVU548
 1706 0000 08B5     		push	{r3, lr}
 1707              	.LCFI25:
 1708              		.cfi_def_cfa_offset 8
 1709              		.cfi_offset 3, -8
 1710              		.cfi_offset 14, -4
 324:Middlewares/ST/STM32_USB_Host_Library/Core/Src/usbh_ctlreq.c ****   {
 1711              		.loc 1 324 3 is_stmt 1 view .LVU549
 324:Middlewares/ST/STM32_USB_Host_Library/Core/Src/usbh_ctlreq.c ****   {
 1712              		.loc 1 324 12 is_stmt 0 view .LVU550
 1713 0002 8378     		ldrb	r3, [r0, #2]	@ zero_extendqisi2
 324:Middlewares/ST/STM32_USB_Host_Library/Core/Src/usbh_ctlreq.c ****   {
 1714              		.loc 1 324 6 view .LVU551
 1715 0004 012B     		cmp	r3, #1
 1716 0006 04D0     		beq	.L116
 1717              	.L114:
 334:Middlewares/ST/STM32_USB_Host_Library/Core/Src/usbh_ctlreq.c **** }
 1718              		.loc 1 334 3 is_stmt 1 view .LVU552
 334:Middlewares/ST/STM32_USB_Host_Library/Core/Src/usbh_ctlreq.c **** }
 1719              		.loc 1 334 10 is_stmt 0 view .LVU553
 1720 0008 0022     		movs	r2, #0
 1721 000a 1146     		mov	r1, r2
 1722              	.LVL144:
 334:Middlewares/ST/STM32_USB_Host_Library/Core/Src/usbh_ctlreq.c **** }
 1723              		.loc 1 334 10 view .LVU554
 1724 000c FFF7FEFF 		bl	USBH_CtlReq
 1725              	.LVL145:
 335:Middlewares/ST/STM32_USB_Host_Library/Core/Src/usbh_ctlreq.c **** 
 1726              		.loc 1 335 1 view .LVU555
 1727 0010 08BD     		pop	{r3, pc}
 1728              	.LVL146:
ARM GAS  C:\Users\Acer\AppData\Local\Temp\cc74HznB.s 			page 56


 1729              	.L116:
 326:Middlewares/ST/STM32_USB_Host_Library/Core/Src/usbh_ctlreq.c ****                                            | USB_REQ_TYPE_STANDARD;
 1730              		.loc 1 326 5 is_stmt 1 view .LVU556
 326:Middlewares/ST/STM32_USB_Host_Library/Core/Src/usbh_ctlreq.c ****                                            | USB_REQ_TYPE_STANDARD;
 1731              		.loc 1 326 42 is_stmt 0 view .LVU557
 1732 0012 0223     		movs	r3, #2
 1733 0014 0374     		strb	r3, [r0, #16]
 329:Middlewares/ST/STM32_USB_Host_Library/Core/Src/usbh_ctlreq.c ****     phost->Control.setup.b.wValue.w = FEATURE_SELECTOR_ENDPOINT;
 1734              		.loc 1 329 5 is_stmt 1 view .LVU558
 329:Middlewares/ST/STM32_USB_Host_Library/Core/Src/usbh_ctlreq.c ****     phost->Control.setup.b.wValue.w = FEATURE_SELECTOR_ENDPOINT;
 1735              		.loc 1 329 37 is_stmt 0 view .LVU559
 1736 0016 0123     		movs	r3, #1
 1737 0018 4374     		strb	r3, [r0, #17]
 330:Middlewares/ST/STM32_USB_Host_Library/Core/Src/usbh_ctlreq.c ****     phost->Control.setup.b.wIndex.w = ep_num;
 1738              		.loc 1 330 5 is_stmt 1 view .LVU560
 330:Middlewares/ST/STM32_USB_Host_Library/Core/Src/usbh_ctlreq.c ****     phost->Control.setup.b.wIndex.w = ep_num;
 1739              		.loc 1 330 37 is_stmt 0 view .LVU561
 1740 001a 0023     		movs	r3, #0
 1741 001c 4382     		strh	r3, [r0, #18]	@ movhi
 331:Middlewares/ST/STM32_USB_Host_Library/Core/Src/usbh_ctlreq.c ****     phost->Control.setup.b.wLength.w = 0U;
 1742              		.loc 1 331 5 is_stmt 1 view .LVU562
 331:Middlewares/ST/STM32_USB_Host_Library/Core/Src/usbh_ctlreq.c ****     phost->Control.setup.b.wLength.w = 0U;
 1743              		.loc 1 331 37 is_stmt 0 view .LVU563
 1744 001e 8182     		strh	r1, [r0, #20]	@ movhi
 332:Middlewares/ST/STM32_USB_Host_Library/Core/Src/usbh_ctlreq.c ****   }
 1745              		.loc 1 332 5 is_stmt 1 view .LVU564
 332:Middlewares/ST/STM32_USB_Host_Library/Core/Src/usbh_ctlreq.c ****   }
 1746              		.loc 1 332 38 is_stmt 0 view .LVU565
 1747 0020 C382     		strh	r3, [r0, #22]	@ movhi
 1748 0022 F1E7     		b	.L114
 1749              		.cfi_endproc
 1750              	.LFE141:
 1752              		.text
 1753              	.Letext0:
 1754              		.file 2 "c:\\embeded program\\gcc-arm-none-eabi-10.3-2021.10\\arm-none-eabi\\include\\machine\\_de
 1755              		.file 3 "c:\\embeded program\\gcc-arm-none-eabi-10.3-2021.10\\arm-none-eabi\\include\\sys\\_stdint
 1756              		.file 4 "Middlewares/ST/STM32_USB_Host_Library/Core/Inc/usbh_def.h"
 1757              		.file 5 "Middlewares/ST/STM32_USB_Host_Library/Core/Inc/usbh_ioreq.h"
 1758              		.file 6 "Middlewares/ST/STM32_USB_Host_Library/Core/Inc/usbh_core.h"
 1759              		.file 7 "Middlewares/ST/STM32_USB_Host_Library/Core/Inc/usbh_pipes.h"
ARM GAS  C:\Users\Acer\AppData\Local\Temp\cc74HznB.s 			page 57

